ASxxxx Linker V03.00/V05.40 + sdld,  page 1.
Hexadecimal  [32-Bits]

Area                                    Addr        Size        Decimal Bytes (Attributes)
--------------------------------        ----        ----        ------- ----- ------------
.  .ABS.                            00000000    00000000 =           0. bytes (ABS,CON)

      Value  Global                              Global Defined In Module
      -----  --------------------------------   ------------------------
     00000000  .__.ABS.                           
     00000000  _rRAMG                             
     00000000  l__BASE                         
     00000000  l__BSS                          
     00000000  l__CABS                         
     00000000  l__CODE_0                       
     00000000  l__CRASH_HEADER                 
     00000000  l__CRASH_SCRATCH                
     00000000  l__DABS                         
     00000000  l__HEADER                       
     00000000  l__HEADER_LCD                   
     00000000  l__HEADER_SIO                   
     00000000  l__HEADER_TIMER                 
     00000000  l__HEAP                         
     00000000  l__HEAP_END                     
     00000000  l__HRAM                         
     00000000  l__LIT                          
     00000000  s__CABS                         
     00000000  s__CRASH_HEADER                 
     00000000  s__CRASH_HEADER0                
     00000000  s__CRASH_HEADER1                
     00000000  s__CRASH_SCRATCH                
     00000000  s__CRASH_SCRATCH2               
     00000000  s__DABS                         
     00000000  s__HEADER                       
     00000000  s__HEADER0                      
     00000000  s__HEADER1                      
     00000000  s__HEADER10                     
     00000000  s__HEADER11                     
     00000000  s__HEADER2                      
     00000000  s__HEADER3                      
     00000000  s__HEADER4                      
     00000000  s__HEADER5                      
     00000000  s__HEADER6                      
     00000000  s__HEADER7                      
     00000000  s__HEADER8                      
     00000000  s__HEADER9                      
     00000000  s__HEADER_LCD                   
     00000000  s__HEADER_LCD0                  
     00000000  s__HEADER_SIO                   
     00000000  s__HEADER_SIO0                  
     00000000  s__HEADER_TIMER                 
     00000000  s__HEADER_TIMER0                
     00000000  s__HEADERa                      
     00000000  s__HEADERb                      
     00000000  s__HEADERc                      
     00000000  s__HEADERd                      
     00000000  s__HEADERe                      
     00000000  s__HEADERf                      
     00000000  s__HRAM                         
ASxxxx Linker V03.00/V05.40 + sdld,  page 2.
Hexadecimal  [32-Bits]

Area                                    Addr        Size        Decimal Bytes (Attributes)
--------------------------------        ----        ----        ------- ----- ------------
.  .ABS.                            00000000    00000000 =           0. bytes (ABS,CON)

      Value  Global                              Global Defined In Module
      -----  --------------------------------   ------------------------
     00000000  s__HRAM12                       
     00000001  ___bank_ACTOR                      actor
     00000001  ___bank_VM_SGB                     vm_sgb
     00000001  ___bank_bg_congratulations_tilem   bg_congratulations_tilemap
     00000001  ___bank_scene_0_sprites            scene_0_sprites
     00000001  b_activate_actor                   actor
     00000001  b_activate_actors_in_col           actor
     00000001  b_activate_actors_in_row           actor
     00000001  b_actor_at_tile                    actor
     00000001  b_actor_get_frame_offset           actor
     00000001  b_actor_in_front_of_player         actor
     00000001  b_actor_overlapping_bb             actor
     00000001  b_actor_overlapping_player         actor
     00000001  b_actor_set_anim_idle              actor
     00000001  b_actor_set_anim_moving            actor
     00000001  b_actor_set_dir                    actor
     00000001  b_actor_set_frame_offset           actor
     00000001  b_actor_set_frames                 actor
     00000001  b_actors_handle_player_collision   actor
     00000001  b_actors_init                      actor
     00000001  b_check_collision_in_direction     actor
     00000001  b_deactivate_actor                 actor
     00000001  b_platform_init                    platform
     00000001  b_platform_update                  platform
     00000001  b_player_init                      actor
     00000001  b_shmup_init                       shmup
     00000001  b_shmup_update                     shmup
     00000001  b_ui_draw_frame                    ui
     00000001  b_ui_draw_text_buffer_char         ui
     00000001  b_ui_init                          ui
     00000001  b_ui_load_tiles                    ui
     00000001  b_ui_run_menu                      ui
     00000001  b_ui_run_modal                     ui
     00000001  b_ui_set_start_tile                ui
     00000001  l__GSFINAL                      
     00000001  l__HEADER0                      
     00000001  l__HEADER5                      
     00000001  l__HEADERa                      
     00000001  l__HEADERb                      
     00000001  l__HEADERc                      
     00000001  l__HEADERe                      
     00000001  l__HEADERf                      
     00000002  ___bank_VM_ACTOR                   vm_actor
     00000002  ___bank_VM_MAIN                    vm
     00000002  ___bank_bg_loser_tileset           bg_loser_tileset
     00000002  ___bank_bootstrap_script           
     00000002  ___bank_font_gbs_mono              font_gbs_mono
     00000002  ___bank_song_song_template_Data    song_song_template_Data
     00000002  b_script_detach_hthread            vm
     00000002  b_script_execute                   vm
     00000002  b_script_runner_init               vm
ASxxxx Linker V03.00/V05.40 + sdld,  page 3.
Hexadecimal  [32-Bits]

Area                                    Addr        Size        Decimal Bytes (Attributes)
--------------------------------        ----        ----        ------- ----- ------------
.  .ABS.                            00000000    00000000 =           0. bytes (ABS,CON)

      Value  Global                              Global Defined In Module
      -----  --------------------------------   ------------------------
     00000002  b_script_terminate                 vm
     00000002  b_vm_actor_activate                vm_actor
     00000002  b_vm_actor_begin_update            vm_actor
     00000002  b_vm_actor_deactivate              vm_actor
     00000002  b_vm_actor_emote                   vm_actor
     00000002  b_vm_actor_get_angle               vm_actor
     00000002  b_vm_actor_get_anim_frame          vm_actor
     00000002  b_vm_actor_get_dir                 vm_actor
     00000002  b_vm_actor_get_pos                 vm_actor
     00000002  b_vm_actor_move_cancel             vm_actor
     00000002  b_vm_actor_move_to                 vm_actor
     00000002  b_vm_actor_replace_tile            vm_actor
     00000002  b_vm_actor_set_anim                vm_actor
     00000002  b_vm_actor_set_anim_frame          vm_actor
     00000002  b_vm_actor_set_anim_set            vm_actor
     00000002  b_vm_actor_set_anim_tick           vm_actor
     00000002  b_vm_actor_set_bounds              vm_actor
     00000002  b_vm_actor_set_dir                 vm_actor
     00000002  b_vm_actor_set_flags               vm_actor
     00000002  b_vm_actor_set_move_speed          vm_actor
     00000002  b_vm_actor_set_pos                 vm_actor
     00000002  b_vm_actor_set_spritesheet         vm_actor
     00000002  b_vm_actor_set_spritesheet_by_re   vm_actor
     00000002  b_vm_actor_terminate_update        vm_actor
     00000002  b_vm_call                          vm
     00000002  b_vm_call_far                      vm
     00000002  b_vm_get_indirect                  vm
     00000002  b_vm_get_tlocal                    vm
     00000002  b_vm_idle                          vm
     00000002  b_vm_if                            vm
     00000002  b_vm_if_const                      vm
     00000002  b_vm_init_rng                      vm
     00000002  b_vm_invoke                        vm
     00000002  b_vm_join                          vm
     00000002  b_vm_jump                          vm
     00000002  b_vm_lock                          vm
     00000002  b_vm_loop                          vm
     00000002  b_vm_memcpy                        vm
     00000002  b_vm_memset                        vm
     00000002  b_vm_poll_loaded                   vm
     00000002  b_vm_pop                           vm
     00000002  b_vm_push                          vm
     00000002  b_vm_push_reference                vm
     00000002  b_vm_push_value                    vm
     00000002  b_vm_push_value_ind                vm
     00000002  b_vm_raise                         vm
     00000002  b_vm_rand                          vm
     00000002  b_vm_reserve                       vm
     00000002  b_vm_ret                           vm
     00000002  b_vm_ret_far                       vm
     00000002  b_vm_set                           vm
ASxxxx Linker V03.00/V05.40 + sdld,  page 4.
Hexadecimal  [32-Bits]

Area                                    Addr        Size        Decimal Bytes (Attributes)
--------------------------------        ----        ----        ------- ----- ------------
.  .ABS.                            00000000    00000000 =           0. bytes (ABS,CON)

      Value  Global                              Global Defined In Module
      -----  --------------------------------   ------------------------
     00000002  b_vm_set_const                     vm
     00000002  b_vm_set_indirect                  vm
     00000002  b_vm_terminate                     vm
     00000002  b_vm_test_terminate                vm
     00000002  b_vm_unlock                        vm
     00000002  b_wait_frames                      vm
     00000002  l__HEADER10                     
     00000002  l__HEADER6                      
     00000002  l__HEADERd                      
     00000003  ___bank_VM_UI                      vm_ui
     00000003  ___bank_bg_congratulations_tiles   bg_congratulations_tileset
     00000003  ___bank_bg_logo_tileset            bg_logo_tileset
     00000003  ___bank_bg_titlescreen_tileset     bg_titlescreen_tileset
     00000003  ___bank_palette_0                  palette_0
     00000003  ___bank_scene_13_init              scene_13_init
     00000003  ___bank_scene_1_sprites            scene_1_sprites
     00000003  ___bank_sprite_npc003_tileset      sprite_npc003_tileset
     00000003  b_adventure_init                   adventure
     00000003  b_adventure_update                 adventure
     00000003  b_do_load_palette                  data_manager
     00000003  b_load_background                  data_manager
     00000003  b_load_bkg_tileset                 data_manager
     00000003  b_load_bounds                      data_manager
     00000003  b_load_emote                       data_manager
     00000003  b_load_init                        data_manager
     00000003  b_load_player                      data_manager
     00000003  b_load_scene                       data_manager
     00000003  b_load_sprite                      data_manager
     00000003  b_scroll_init                      scroll
     00000003  b_scroll_repaint                   scroll
     00000003  b_scroll_reset                     scroll
     00000003  b_scroll_update                    scroll
     00000003  b_topdown_init                     topdown
     00000003  b_topdown_update                   topdown
     00000003  b_vm_choice                        vm_ui
     00000003  b_vm_display_text                  vm_ui
     00000003  b_vm_overlay_clear                 vm_ui
     00000003  b_vm_overlay_move_to               vm_ui
     00000003  b_vm_overlay_scroll                vm_ui
     00000003  b_vm_overlay_set_map               vm_ui
     00000003  b_vm_overlay_set_scroll            vm_ui
     00000003  b_vm_overlay_set_submap            vm_ui
     00000003  b_vm_overlay_set_submap_ex         vm_ui
     00000003  b_vm_overlay_setpos                vm_ui
     00000003  b_vm_overlay_show                  vm_ui
     00000003  b_vm_overlay_wait                  vm_ui
     00000003  b_vm_set_font                      vm_ui
     00000003  b_vm_set_text_sound                vm_ui
     00000003  b_vm_switch_text_layer             vm_ui
     00000003  l__HEADER9                      
     00000003  l__HEADER_LCD0                  
ASxxxx Linker V03.00/V05.40 + sdld,  page 5.
Hexadecimal  [32-Bits]

Area                                    Addr        Size        Decimal Bytes (Attributes)
--------------------------------        ----        ----        ------- ----- ------------
.  .ABS.                            00000000    00000000 =           0. bytes (ABS,CON)

      Value  Global                              Global Defined In Module
      -----  --------------------------------   ------------------------
     00000003  l__HRAM12                       
     00000004  ___bank_VM_GAMEBOY                 vm_gameboy
     00000004  ___bank_bg_arena1_copy_tilemap     bg_arena1_copy_tilemap
     00000004  ___bank_bg_arena1_tilemap          bg_arena1_tilemap
     00000004  ___bank_bg_arena2_copy_2_tilemap   bg_arena2_copy_2_tilemap
     00000004  ___bank_bg_arena2_copy_3_tilemap   bg_arena2_copy_3_tilemap
     00000004  ___bank_bg_arena2_copy_4_tilemap   bg_arena2_copy_4_tilemap
     00000004  ___bank_bg_arena2_copy_5_tilemap   bg_arena2_copy_5_tilemap
     00000004  ___bank_bg_arena2_copy_6_tilemap   bg_arena2_copy_6_tilemap
     00000004  ___bank_bg_arena2_copy_7_tilemap   bg_arena2_copy_7_tilemap
     00000004  ___bank_bg_arena2_copy_8_tilemap   bg_arena2_copy_8_tilemap
     00000004  ___bank_bg_arena2_copy_tilemap     bg_arena2_copy_tilemap
     00000004  ___bank_palette_1                  palette_1
     00000004  ___bank_scene_0_collisions         scene_0_collisions
     00000004  ___bank_scene_12_init              scene_12_init
     00000004  ___bank_scene_1_collisions         scene_1_collisions
     00000004  b_projectile_launch                projectiles
     00000004  b_projectiles_init                 projectiles
     00000004  b_set_sgb_border                   sgb_border
     00000004  b_vm_context_prepare               vm_gameboy
     00000004  b_vm_fade                          vm_gameboy
     00000004  b_vm_get_tile_xy                   vm_gameboy
     00000004  b_vm_input_attach                  vm_gameboy
     00000004  b_vm_input_detach                  vm_gameboy
     00000004  b_vm_input_get                     vm_gameboy
     00000004  b_vm_input_wait                    vm_gameboy
     00000004  b_vm_load_tileset                  vm_gameboy
     00000004  b_vm_poll                          vm_gameboy
     00000004  b_vm_replace_tile                  vm_gameboy
     00000004  b_vm_replace_tile_xy               vm_gameboy
     00000004  b_vm_rumble                        vm_gameboy
     00000004  b_vm_set_sprite_mode               vm_gameboy
     00000004  b_vm_set_sprites_visible           vm_gameboy
     00000004  b_vm_timer_prepare                 vm_gameboy
     00000004  b_vm_timer_reset                   vm_gameboy
     00000004  b_vm_timer_set                     vm_gameboy
     00000004  b_vm_timer_stop                    vm_gameboy
     00000004  l__CRASH_HEADER1                
     00000004  l__HEADER_SIO0                  
     00000004  l__HEADER_TIMER0                
     00000005  ___bank_VM_CAMERA                  vm_camera
     00000005  ___bank_VM_GBPRINTER               vm_gbprinter
     00000005  ___bank_scene_10_collisions        scene_10_collisions
     00000005  ___bank_scene_11_collisions        scene_11_collisions
     00000005  ___bank_scene_12_collisions        scene_12_collisions
     00000005  ___bank_scene_5_collisions         scene_5_collisions
     00000005  ___bank_scene_6_collisions         scene_6_collisions
     00000005  ___bank_scene_7_collisions         scene_7_collisions
     00000005  ___bank_scene_8_collisions         scene_8_collisions
     00000005  ___bank_scene_9_collisions         scene_9_collisions
     00000005  ___bank_sprite_player_tileset      sprite_player_tileset
ASxxxx Linker V03.00/V05.40 + sdld,  page 6.
Hexadecimal  [32-Bits]

Area                                    Addr        Size        Decimal Bytes (Attributes)
--------------------------------        ----        ----        ------- ----- ------------
.  .ABS.                            00000000    00000000 =           0. bytes (ABS,CON)

      Value  Global                              Global Defined In Module
      -----  --------------------------------   ------------------------
     00000005  b___HandleCrash_banked             
     00000005  b_atan2                            math_atan2
     00000005  b_camera_shake_frames              vm_camera
     00000005  b_core_reset                       core
     00000005  b_core_run                         core
     00000005  b_data_clear                       load_save
     00000005  b_data_init                        load_save
     00000005  b_data_load                        load_save
     00000005  b_data_peek                        load_save
     00000005  b_data_save                        load_save
     00000005  b_gbprinter_detect                 gbprinter
     00000005  b_gbprinter_print_overlay          gbprinter
     00000005  b_pointnclick_init                 pointnclick
     00000005  b_pointnclick_update               pointnclick
     00000005  b_trigger_activate_at              trigger
     00000005  b_trigger_activate_at_intersecti   trigger
     00000005  b_trigger_at_intersection          trigger
     00000005  b_trigger_at_tile                  trigger
     00000005  b_trigger_interact                 trigger
     00000005  b_trigger_reset                    trigger
     00000005  b_vm_camera_move_to                vm_camera
     00000005  b_vm_camera_set_pos                vm_camera
     00000005  b_vm_print_detect                  vm_gbprinter
     00000005  b_vm_print_overlay                 vm_gbprinter
     00000005  l__CRASH_HEADER0                
     00000005  l__HEADER1                      
     00000006  ___bank_VM_SIO                     vm_sio
     00000006  ___bank_actor_0_update             actor_0_update
     00000006  ___bank_actor_100_update           actor_100_update
     00000006  ___bank_actor_101_update           actor_101_update
     00000006  ___bank_actor_102_update           actor_102_update
     00000006  ___bank_actor_10_update            actor_10_update
     00000006  ___bank_scene_0_actors             scene_0_actors
     00000006  ___bank_scene_0_init               scene_0_init
     00000006  ___bank_scene_10_actors            scene_10_actors
     00000006  ___bank_scene_10_init              scene_10_init
     00000006  ___bank_scene_11_actors            scene_11_actors
     00000006  ___bank_scene_11_init              scene_11_init
     00000006  ___bank_scene_12_actors            scene_12_actors
     00000006  ___bank_scene_1_actors             scene_1_actors
     00000006  ___bank_scene_1_init               scene_1_init
     00000006  ___bank_scene_5_actors             scene_5_actors
     00000006  ___bank_scene_5_init               scene_5_init
     00000006  ___bank_scene_6_actors             scene_6_actors
     00000006  ___bank_scene_6_init               scene_6_init
     00000006  ___bank_scene_7_actors             scene_7_actors
     00000006  ___bank_scene_7_init               scene_7_init
     00000006  ___bank_scene_8_actors             scene_8_actors
     00000006  ___bank_scene_8_init               scene_8_init
     00000006  ___bank_scene_9_actors             scene_9_actors
     00000006  ___bank_scene_9_init               scene_9_init
ASxxxx Linker V03.00/V05.40 + sdld,  page 7.
Hexadecimal  [32-Bits]

Area                                    Addr        Size        Decimal Bytes (Attributes)
--------------------------------        ----        ----        ------- ----- ------------
.  .ABS.                            00000000    00000000 =           0. bytes (ABS,CON)

      Value  Global                              Global Defined In Module
      -----  --------------------------------   ------------------------
     00000006  ___bank_script_input_0             script_input_0
     00000006  ___bank_sprite_hp_tileset          sprite_hp_tileset
     00000006  b_fade_applypalettechange          fade_manager
     00000006  b_fade_in                          fade_manager
     00000006  b_fade_in_modal                    fade_manager
     00000006  b_fade_init                        fade_manager
     00000006  b_fade_out                         fade_manager
     00000006  b_fade_out_modal                   fade_manager
     00000006  b_fade_setspeed                    fade_manager
     00000006  b_fade_update                      fade_manager
     00000006  b_logo_init                        logo
     00000006  b_logo_update                      logo
     00000006  b_vm_sio_exchange                  vm_sio
     00000006  b_vm_sio_set_mode                  vm_sio
     00000006  l__HEADER8                      
     00000007  ___bank_actor_103_update           actor_103_update
     00000007  ___bank_actor_104_update           actor_104_update
     00000007  ___bank_actor_105_update           actor_105_update
     00000007  ___bank_actor_106_update           actor_106_update
     00000007  ___bank_actor_107_update           actor_107_update
     00000007  ___bank_actor_108_update           actor_108_update
     00000007  ___bank_actor_109_update           actor_109_update
     00000007  ___bank_actor_110_update           actor_110_update
     00000007  ___bank_actor_111_update           actor_111_update
     00000007  ___bank_actor_112_update           actor_112_update
     00000007  ___bank_actor_113_update           actor_113_update
     00000007  ___bank_actor_114_update           actor_114_update
     00000007  ___bank_actor_115_update           actor_115_update
     00000007  ___bank_actor_116_update           actor_116_update
     00000007  ___bank_actor_117_update           actor_117_update
     00000007  ___bank_actor_118_update           actor_118_update
     00000007  ___bank_actor_119_update           actor_119_update
     00000007  ___bank_actor_17_update            actor_17_update
     00000007  ___bank_actor_18_update            actor_18_update
     00000007  ___bank_actor_19_update            actor_19_update
     00000007  ___bank_actor_24_update            actor_24_update
     00000007  ___bank_actor_28_update            actor_28_update
     00000007  ___bank_actor_29_update            actor_29_update
     00000007  ___bank_actor_30_update            actor_30_update
     00000007  ___bank_actor_32_update            actor_32_update
     00000007  ___bank_actor_33_update            actor_33_update
     00000007  ___bank_actor_34_update            actor_34_update
     00000007  ___bank_actor_35_update            actor_35_update
     00000007  ___bank_actor_3_update             actor_3_update
     00000007  ___bank_bg_logo_tilemap            bg_logo_tilemap
     00000007  ___bank_scene_0_p_hit1             scene_0_p_hit1
     00000007  l__HEADER2                      
     00000008  ___bank_actor_36_update            actor_36_update
     00000008  ___bank_actor_37_update            actor_37_update
     00000008  ___bank_actor_38_update            actor_38_update
     00000008  ___bank_actor_39_update            actor_39_update
ASxxxx Linker V03.00/V05.40 + sdld,  page 8.
Hexadecimal  [32-Bits]

Area                                    Addr        Size        Decimal Bytes (Attributes)
--------------------------------        ----        ----        ------- ----- ------------
.  .ABS.                            00000000    00000000 =           0. bytes (ABS,CON)

      Value  Global                              Global Defined In Module
      -----  --------------------------------   ------------------------
     00000008  ___bank_actor_40_update            actor_40_update
     00000008  ___bank_actor_41_update            actor_41_update
     00000008  ___bank_actor_42_update            actor_42_update
     00000008  ___bank_actor_43_update            actor_43_update
     00000008  ___bank_actor_44_update            actor_44_update
     00000008  ___bank_actor_45_update            actor_45_update
     00000008  ___bank_actor_46_update            actor_46_update
     00000008  ___bank_actor_47_update            actor_47_update
     00000008  ___bank_actor_48_update            actor_48_update
     00000008  ___bank_actor_49_update            actor_49_update
     00000008  ___bank_actor_50_update            actor_50_update
     00000008  ___bank_actor_51_update            actor_51_update
     00000008  ___bank_actor_52_update            actor_52_update
     00000008  ___bank_actor_53_update            actor_53_update
     00000008  ___bank_actor_54_update            actor_54_update
     00000008  ___bank_actor_55_update            actor_55_update
     00000008  ___bank_actor_56_update            actor_56_update
     00000008  ___bank_actor_57_update            actor_57_update
     00000008  ___bank_actor_58_update            actor_58_update
     00000008  ___bank_actor_59_update            actor_59_update
     00000008  ___bank_actor_60_update            actor_60_update
     00000008  ___bank_actor_61_update            actor_61_update
     00000008  ___bank_actor_62_update            actor_62_update
     00000008  ___bank_actor_63_update            actor_63_update
     00000008  ___bank_actor_6_update             actor_6_update
     00000008  ___bank_bg_loser_tilemap           bg_loser_tilemap
     00000008  ___bank_scene_1_p_hit1             scene_1_p_hit1
     00000008  l__HEADER3                      
     00000009  ___bank_actor_64_update            actor_64_update
     00000009  ___bank_actor_65_update            actor_65_update
     00000009  ___bank_actor_66_update            actor_66_update
     00000009  ___bank_actor_67_update            actor_67_update
     00000009  ___bank_actor_68_update            actor_68_update
     00000009  ___bank_actor_69_update            actor_69_update
     00000009  ___bank_actor_70_update            actor_70_update
     00000009  ___bank_actor_71_update            actor_71_update
     00000009  ___bank_actor_72_update            actor_72_update
     00000009  ___bank_actor_73_update            actor_73_update
     00000009  ___bank_actor_74_update            actor_74_update
     00000009  ___bank_actor_75_update            actor_75_update
     00000009  ___bank_actor_76_update            actor_76_update
     00000009  ___bank_actor_77_update            actor_77_update
     00000009  ___bank_actor_78_update            actor_78_update
     00000009  ___bank_actor_79_update            actor_79_update
     00000009  ___bank_actor_80_update            actor_80_update
     00000009  ___bank_actor_81_update            actor_81_update
     00000009  ___bank_actor_82_update            actor_82_update
     00000009  ___bank_actor_83_update            actor_83_update
     00000009  ___bank_actor_84_update            actor_84_update
     00000009  ___bank_actor_85_update            actor_85_update
     00000009  ___bank_actor_86_update            actor_86_update
ASxxxx Linker V03.00/V05.40 + sdld,  page 9.
Hexadecimal  [32-Bits]

Area                                    Addr        Size        Decimal Bytes (Attributes)
--------------------------------        ----        ----        ------- ----- ------------
.  .ABS.                            00000000    00000000 =           0. bytes (ABS,CON)

      Value  Global                              Global Defined In Module
      -----  --------------------------------   ------------------------
     00000009  ___bank_actor_87_update            actor_87_update
     00000009  ___bank_actor_88_update            actor_88_update
     00000009  ___bank_actor_89_update            actor_89_update
     00000009  ___bank_actor_90_update            actor_90_update
     00000009  ___bank_actor_91_update            actor_91_update
     00000009  ___bank_actor_9_update             actor_9_update
     00000009  ___bank_bg_titlescreen_tilemap     bg_titlescreen_tilemap
     00000009  ___bank_scene_11_p_hit1            scene_11_p_hit1
     0000000A  ___bank_VM_LOAD_SAVE               vm_load_save
     0000000A  ___bank_VM_MATH                    vm_math
     0000000A  ___bank_VM_MUSIC                   vm_music
     0000000A  ___bank_VM_PALETTE                 vm_palette
     0000000A  ___bank_VM_PROJECTILE              vm_projectiles
     0000000A  ___bank_VM_RTC                     vm_rtc
     0000000A  ___bank_VM_SCENE                   vm_scene
     0000000A  ___bank_actor_12_update            actor_12_update
     0000000A  ___bank_actor_15_update            actor_15_update
     0000000A  ___bank_actor_16_update            actor_16_update
     0000000A  ___bank_actor_22_update            actor_22_update
     0000000A  ___bank_actor_23_update            actor_23_update
     0000000A  ___bank_actor_26_update            actor_26_update
     0000000A  ___bank_actor_2_update             actor_2_update
     0000000A  ___bank_actor_31_update            actor_31_update
     0000000A  ___bank_actor_5_update             actor_5_update
     0000000A  ___bank_actor_8_update             actor_8_update
     0000000A  ___bank_actor_92_update            actor_92_update
     0000000A  ___bank_actor_93_update            actor_93_update
     0000000A  ___bank_actor_94_update            actor_94_update
     0000000A  ___bank_actor_95_update            actor_95_update
     0000000A  ___bank_actor_96_update            actor_96_update
     0000000A  ___bank_actor_97_update            actor_97_update
     0000000A  ___bank_actor_98_update            actor_98_update
     0000000A  ___bank_actor_99_update            actor_99_update
     0000000A  ___bank_bg_arena1_copy_tileset     bg_arena1_copy_tileset
     0000000A  ___bank_bg_arena1_tileset          bg_arena1_tileset
     0000000A  ___bank_bg_arena2_copy_2_tileset   bg_arena2_copy_2_tileset
     0000000A  ___bank_bg_arena2_copy_3_tileset   bg_arena2_copy_3_tileset
     0000000A  ___bank_bg_arena2_copy_4_tileset   bg_arena2_copy_4_tileset
     0000000A  ___bank_bg_arena2_copy_5_tileset   bg_arena2_copy_5_tileset
     0000000A  ___bank_bg_arena2_copy_6_tileset   bg_arena2_copy_6_tileset
     0000000A  ___bank_bg_arena2_copy_7_tileset   bg_arena2_copy_7_tileset
     0000000A  ___bank_bg_arena2_copy_8_tileset   bg_arena2_copy_8_tileset
     0000000A  ___bank_bg_arena2_copy_tileset     bg_arena2_copy_tileset
     0000000A  ___bank_cursor_image               cursor_image
     0000000A  ___bank_frame_image                frame_image
     0000000A  ___bank_scene_10_p_hit1            scene_10_p_hit1
     0000000A  ___bank_scene_12_p_hit1            scene_12_p_hit1
     0000000A  ___bank_scene_13_collisions        scene_13_collisions
     0000000A  ___bank_scene_14_collisions        scene_14_collisions
     0000000A  ___bank_scene_14_init              scene_14_init
     0000000A  ___bank_scene_5_p_hit1             scene_5_p_hit1
ASxxxx Linker V03.00/V05.40 + sdld,  page 10.
Hexadecimal  [32-Bits]

Area                                    Addr        Size        Decimal Bytes (Attributes)
--------------------------------        ----        ----        ------- ----- ------------
.  .ABS.                            00000000    00000000 =           0. bytes (ABS,CON)

      Value  Global                              Global Defined In Module
      -----  --------------------------------   ------------------------
     0000000A  ___bank_scene_6_p_hit1             scene_6_p_hit1
     0000000A  ___bank_scene_7_p_hit1             scene_7_p_hit1
     0000000A  ___bank_scene_8_p_hit1             scene_8_p_hit1
     0000000A  ___bank_scene_9_p_hit1             scene_9_p_hit1
     0000000A  ___bank_scene_logo_collisions      scene_logo_collisions
     0000000A  ___bank_scene_logo_init            scene_logo_init
     0000000A  ___bank_scene_title_screen_colli   scene_title_screen_collision
     0000000A  ___bank_scene_title_screen_init    scene_title_screen_init
     0000000A  ___bank_script_engine_init         
     0000000A  ___bank_script_input_1             script_input_1
     0000000A  ___bank_script_input_2             script_input_2
     0000000A  ___bank_script_input_3             script_input_3
     0000000A  ___bank_script_input_4             script_input_4
     0000000A  ___bank_script_input_5             script_input_5
     0000000A  ___bank_sprite_hp                  sprite_hp
     0000000A  ___bank_sprite_npc003              sprite_npc003
     0000000A  ___bank_sprite_player              sprite_player
     0000000A  b_erase_flash                      
     0000000A  b_events_init                      events
     0000000A  b_itoa_fmt                         vm_ui_a
     0000000A  b_music_events_poll                music_manager
     0000000A  b_music_init_driver                music_manager
     0000000A  b_music_init_events                music_manager
     0000000A  b_restore_sram                     flasher
     0000000A  b_restore_sram_bank                flasher
     0000000A  b_save_sram                        flasher
     0000000A  b_save_sram_banks                  
     0000000A  b_timers_init                      events
     0000000A  b_vm_cos_scale                     vm_math
     0000000A  b_vm_load_palette                  vm_palette
     0000000A  b_vm_music_mute                    vm_music
     0000000A  b_vm_music_play                    vm_music
     0000000A  b_vm_music_routine                 vm_music
     0000000A  b_vm_music_setpos                  vm_music
     0000000A  b_vm_music_stop                    vm_music
     0000000A  b_vm_projectile_launch             vm_projectiles
     0000000A  b_vm_projectile_load_type          vm_projectiles
     0000000A  b_vm_rtc_get                       vm_rtc
     0000000A  b_vm_rtc_latch                     vm_rtc
     0000000A  b_vm_rtc_set                       vm_rtc
     0000000A  b_vm_rtc_start                     vm_rtc
     0000000A  b_vm_save_clear                    vm_load_save
     0000000A  b_vm_save_peek                     vm_load_save
     0000000A  b_vm_scene_pop                     vm_scene
     0000000A  b_vm_scene_pop_all                 vm_scene
     0000000A  b_vm_scene_push                    vm_scene
     0000000A  b_vm_scene_stack_reset             vm_scene
     0000000A  b_vm_sfx_play                      vm_music
     0000000A  b_vm_sin_scale                     vm_math
     0000000A  b_vm_sound_mastervol               vm_music
     0000000B  ___bank_actor_0_interact           actor_0_interact
ASxxxx Linker V03.00/V05.40 + sdld,  page 11.
Hexadecimal  [32-Bits]

Area                                    Addr        Size        Decimal Bytes (Attributes)
--------------------------------        ----        ----        ------- ----- ------------
.  .ABS.                            00000000    00000000 =           0. bytes (ABS,CON)

      Value  Global                              Global Defined In Module
      -----  --------------------------------   ------------------------
     0000000B  ___bank_actor_100_interact         actor_100_interact
     0000000B  ___bank_actor_101_interact         actor_101_interact
     0000000B  ___bank_actor_102_interact         actor_102_interact
     0000000B  ___bank_actor_103_interact         actor_103_interact
     0000000B  ___bank_actor_104_interact         actor_104_interact
     0000000B  ___bank_actor_105_interact         actor_105_interact
     0000000B  ___bank_actor_106_interact         actor_106_interact
     0000000B  ___bank_actor_107_interact         actor_107_interact
     0000000B  ___bank_actor_108_interact         actor_108_interact
     0000000B  ___bank_actor_109_interact         actor_109_interact
     0000000B  ___bank_actor_10_interact          actor_10_interact
     0000000B  ___bank_actor_110_interact         actor_110_interact
     0000000B  ___bank_actor_111_interact         actor_111_interact
     0000000B  ___bank_actor_112_interact         actor_112_interact
     0000000B  ___bank_actor_113_interact         actor_113_interact
     0000000B  ___bank_actor_114_interact         actor_114_interact
     0000000B  ___bank_actor_115_interact         actor_115_interact
     0000000B  ___bank_actor_116_interact         actor_116_interact
     0000000B  ___bank_actor_117_interact         actor_117_interact
     0000000B  ___bank_actor_118_interact         actor_118_interact
     0000000B  ___bank_actor_119_interact         actor_119_interact
     0000000B  ___bank_actor_17_interact          actor_17_interact
     0000000B  ___bank_actor_18_interact          actor_18_interact
     0000000B  ___bank_actor_19_interact          actor_19_interact
     0000000B  ___bank_actor_24_interact          actor_24_interact
     0000000B  ___bank_actor_28_interact          actor_28_interact
     0000000B  ___bank_actor_29_interact          actor_29_interact
     0000000B  ___bank_actor_30_interact          actor_30_interact
     0000000B  ___bank_actor_32_interact          actor_32_interact
     0000000B  ___bank_actor_33_interact          actor_33_interact
     0000000B  ___bank_actor_34_interact          actor_34_interact
     0000000B  ___bank_actor_35_interact          actor_35_interact
     0000000B  ___bank_actor_36_interact          actor_36_interact
     0000000B  ___bank_actor_37_interact          actor_37_interact
     0000000B  ___bank_actor_38_interact          actor_38_interact
     0000000B  ___bank_actor_39_interact          actor_39_interact
     0000000B  ___bank_actor_3_interact           actor_3_interact
     0000000B  ___bank_actor_40_interact          actor_40_interact
     0000000B  ___bank_actor_41_interact          actor_41_interact
     0000000B  ___bank_actor_42_interact          actor_42_interact
     0000000B  ___bank_actor_43_interact          actor_43_interact
     0000000B  ___bank_actor_44_interact          actor_44_interact
     0000000B  ___bank_actor_45_interact          actor_45_interact
     0000000B  ___bank_actor_46_interact          actor_46_interact
     0000000B  ___bank_actor_47_interact          actor_47_interact
     0000000B  ___bank_actor_48_interact          actor_48_interact
     0000000B  ___bank_actor_49_interact          actor_49_interact
     0000000B  ___bank_actor_50_interact          actor_50_interact
     0000000B  ___bank_actor_51_interact          actor_51_interact
     0000000B  ___bank_actor_52_interact          actor_52_interact
     0000000B  ___bank_actor_53_interact          actor_53_interact
ASxxxx Linker V03.00/V05.40 + sdld,  page 12.
Hexadecimal  [32-Bits]

Area                                    Addr        Size        Decimal Bytes (Attributes)
--------------------------------        ----        ----        ------- ----- ------------
.  .ABS.                            00000000    00000000 =           0. bytes (ABS,CON)

      Value  Global                              Global Defined In Module
      -----  --------------------------------   ------------------------
     0000000B  ___bank_actor_54_interact          actor_54_interact
     0000000B  ___bank_actor_55_interact          actor_55_interact
     0000000B  ___bank_actor_56_interact          actor_56_interact
     0000000B  ___bank_actor_57_interact          actor_57_interact
     0000000B  ___bank_actor_58_interact          actor_58_interact
     0000000B  ___bank_actor_59_interact          actor_59_interact
     0000000B  ___bank_actor_60_interact          actor_60_interact
     0000000B  ___bank_actor_61_interact          actor_61_interact
     0000000B  ___bank_actor_62_interact          actor_62_interact
     0000000B  ___bank_actor_63_interact          actor_63_interact
     0000000B  ___bank_actor_64_interact          actor_64_interact
     0000000B  ___bank_actor_65_interact          actor_65_interact
     0000000B  ___bank_actor_66_interact          actor_66_interact
     0000000B  ___bank_actor_67_interact          actor_67_interact
     0000000B  ___bank_actor_68_interact          actor_68_interact
     0000000B  ___bank_actor_69_interact          actor_69_interact
     0000000B  ___bank_actor_6_interact           actor_6_interact
     0000000B  ___bank_actor_70_interact          actor_70_interact
     0000000B  ___bank_actor_71_interact          actor_71_interact
     0000000B  ___bank_actor_72_interact          actor_72_interact
     0000000B  ___bank_actor_73_interact          actor_73_interact
     0000000B  ___bank_actor_74_interact          actor_74_interact
     0000000B  ___bank_actor_75_interact          actor_75_interact
     0000000B  ___bank_actor_76_interact          actor_76_interact
     0000000B  ___bank_actor_77_interact          actor_77_interact
     0000000B  ___bank_actor_78_interact          actor_78_interact
     0000000B  ___bank_actor_79_interact          actor_79_interact
     0000000B  ___bank_actor_80_interact          actor_80_interact
     0000000B  ___bank_actor_81_interact          actor_81_interact
     0000000B  ___bank_actor_82_interact          actor_82_interact
     0000000B  ___bank_actor_83_interact          actor_83_interact
     0000000B  ___bank_actor_84_interact          actor_84_interact
     0000000B  ___bank_actor_85_interact          actor_85_interact
     0000000B  ___bank_actor_86_interact          actor_86_interact
     0000000B  ___bank_actor_87_interact          actor_87_interact
     0000000B  ___bank_actor_88_interact          actor_88_interact
     0000000B  ___bank_actor_89_interact          actor_89_interact
     0000000B  ___bank_actor_90_interact          actor_90_interact
     0000000B  ___bank_actor_91_interact          actor_91_interact
     0000000B  ___bank_actor_92_interact          actor_92_interact
     0000000B  ___bank_actor_93_interact          actor_93_interact
     0000000B  ___bank_actor_94_interact          actor_94_interact
     0000000B  ___bank_actor_95_interact          actor_95_interact
     0000000B  ___bank_actor_96_interact          actor_96_interact
     0000000B  ___bank_actor_97_interact          actor_97_interact
     0000000B  ___bank_actor_98_interact          actor_98_interact
     0000000B  ___bank_actor_99_interact          actor_99_interact
     0000000B  ___bank_actor_9_interact           actor_9_interact
     0000000B  ___bank_bg_arena1                  bg_arena1
     0000000B  ___bank_bg_arena1_copy             bg_arena1_copy
     0000000B  ___bank_bg_arena2_copy             bg_arena2_copy
ASxxxx Linker V03.00/V05.40 + sdld,  page 13.
Hexadecimal  [32-Bits]

Area                                    Addr        Size        Decimal Bytes (Attributes)
--------------------------------        ----        ----        ------- ----- ------------
.  .ABS.                            00000000    00000000 =           0. bytes (ABS,CON)

      Value  Global                              Global Defined In Module
      -----  --------------------------------   ------------------------
     0000000B  ___bank_bg_arena2_copy_2           bg_arena2_copy_2
     0000000B  ___bank_bg_arena2_copy_3           bg_arena2_copy_3
     0000000B  ___bank_bg_arena2_copy_4           bg_arena2_copy_4
     0000000B  ___bank_bg_arena2_copy_5           bg_arena2_copy_5
     0000000B  ___bank_bg_arena2_copy_6           bg_arena2_copy_6
     0000000B  ___bank_bg_arena2_copy_7           bg_arena2_copy_7
     0000000B  ___bank_bg_arena2_copy_8           bg_arena2_copy_8
     0000000B  ___bank_bg_congratulations         bg_congratulations
     0000000B  ___bank_bg_logo                    bg_logo
     0000000B  ___bank_bg_loser                   bg_loser
     0000000B  ___bank_bg_titlescreen             bg_titlescreen
     0000000B  ___bank_scene_0                    scene_0
     0000000B  ___bank_scene_0_projectiles        scene_0_projectiles
     0000000B  ___bank_scene_1                    scene_1
     0000000B  ___bank_scene_10                   scene_10
     0000000B  ___bank_scene_10_projectiles       scene_10_projectiles
     0000000B  ___bank_scene_10_sprites           scene_10_sprites
     0000000B  ___bank_scene_11                   scene_11
     0000000B  ___bank_scene_11_projectiles       scene_11_projectiles
     0000000B  ___bank_scene_11_sprites           scene_11_sprites
     0000000B  ___bank_scene_12                   scene_12
     0000000B  ___bank_scene_12_projectiles       scene_12_projectiles
     0000000B  ___bank_scene_12_sprites           scene_12_sprites
     0000000B  ___bank_scene_13                   scene_13
     0000000B  ___bank_scene_14                   scene_14
     0000000B  ___bank_scene_1_projectiles        scene_1_projectiles
     0000000B  ___bank_scene_5                    scene_5
     0000000B  ___bank_scene_5_projectiles        scene_5_projectiles
     0000000B  ___bank_scene_5_sprites            scene_5_sprites
     0000000B  ___bank_scene_6                    scene_6
     0000000B  ___bank_scene_6_projectiles        scene_6_projectiles
     0000000B  ___bank_scene_6_sprites            scene_6_sprites
     0000000B  ___bank_scene_7                    scene_7
     0000000B  ___bank_scene_7_projectiles        scene_7_projectiles
     0000000B  ___bank_scene_7_sprites            scene_7_sprites
     0000000B  ___bank_scene_8                    scene_8
     0000000B  ___bank_scene_8_projectiles        scene_8_projectiles
     0000000B  ___bank_scene_8_sprites            scene_8_sprites
     0000000B  ___bank_scene_9                    scene_9
     0000000B  ___bank_scene_9_projectiles        scene_9_projectiles
     0000000B  ___bank_scene_9_sprites            scene_9_sprites
     0000000B  ___bank_scene_logo                 scene_logo
     0000000B  ___bank_scene_title_screen         scene_title_screen
     0000000B  ___bank_script_input_6             script_input_6
     0000000B  ___bank_script_input_7             script_input_7
     0000000B  ___bank_script_input_8             script_input_8
     0000000B  ___bank_script_input_9             script_input_9
     0000000B  ___bank_sprite_bullet              sprite_bullet
     0000000B  ___bank_sprite_bullet_tileset      sprite_bullet_tileset
     0000000B  ___bank_spritesheet_none           spritesheet_none
     0000000B  b_SIO_init                         sio
ASxxxx Linker V03.00/V05.40 + sdld,  page 14.
Hexadecimal  [32-Bits]

Area                                    Addr        Size        Decimal Bytes (Attributes)
--------------------------------        ----        ----        ------- ----- ------------
.  .ABS.                            00000000    00000000 =           0. bytes (ABS,CON)

      Value  Global                              Global Defined In Module
      -----  --------------------------------   ------------------------
     0000000B  b_camera_init                      camera
     0000000B  b_input_init                       input
     0000000B  b_palette_init                     palette
     0000000B  b_parallax_init                    parallax
     0000000B  b_remove_LCD_ISRs                  interrupts
     0000000B  b_scroll_rect                      
     0000000C  __start_save                    
     0000001A  l__INITIALIZED                  
     0000001A  l__INITIALIZER                  
     00000027  l__GSINIT                       
     00000030  l__HEADER7                      
     00000060  l__HEADER4                      
     000000AB  l__HEADER11                     
     000001CB  l__CRASH_SCRATCH2               
     00000200  s__CODE                         
     00000E64  l__CODE                         
     00001064  s__HOME                         
     0000156F  l__CODE_11                      
     00001994  l__DATA                         
     00002000  _rROMB0                            
     00002C6D  l__HOME                         
     00003000  _rROMB1                            
     00003CD1  s__BASE                         
     00003CD1  s__CODE_0                       
     00003CD1  s__INITIALIZER                  
     00003CD1  s__LIT                          
     00003CEB  s__GSINIT                       
     00003D12  s__GSFINAL                      
     00003FFC  l__CODE_10                      
     00003FFC  l__CODE_6                       
     00003FFD  l__CODE_5                       
     00003FFD  l__CODE_7                       
     00003FFD  l__CODE_8                       
     00003FFD  l__CODE_9                       
     00003FFE  l__CODE_2                       
     00003FFF  l__CODE_1                       
     00003FFF  l__CODE_3                       
     00003FFF  l__CODE_4                       
     00004000  _RTC_SELECT_REG                    vm_rtc
     00004000  _rRAMB                             
     00006000  _RTC_LATCH_REG                     vm_rtc
     00008000  __VRAM                             
     00008000  __VRAM8000                         
     00008800  __VRAM8800                         
     00009000  __VRAM9000                         
     00009800  __SCRN0                            
     00009C00  __SCRN1                            
     0000A000  _RTC_VALUE_REG                     vm_rtc
     0000A000  __SRAM                             
     0000C000  __RAM                              
     0000C000  _shadow_OAM                     
ASxxxx Linker V03.00/V05.40 + sdld,  page 15.
Hexadecimal  [32-Bits]

Area                                    Addr        Size        Decimal Bytes (Attributes)
--------------------------------        ----        ----        ------- ----- ------------
.  .ABS.                            00000000    00000000 =           0. bytes (ABS,CON)

      Value  Global                              Global Defined In Module
      -----  --------------------------------   ------------------------
     0000C0A0  s__DATA                         
     0000D000  __RAMBANK                          
     0000DA34  s__BSS                          
     0000DA34  s__INITIALIZED                  
     0000DA4E  s__HEAP                         
     0000DA4E  s__HEAP_END                     
     0000DF00  .STACK                          
     0000DF00  _shadow_OAM2                       absolute
     0000DFA0  _BkgPalette                        absolute
     0000DFE0  _vwf_tile_data                     absolute
     0000FE00  __OAMRAM                           
     0000FF00  _P1_REG                            
     0000FF00  __IO                               
     0000FF01  _SB_REG                            
     0000FF02  _SC_REG                            
     0000FF04  _DIV_REG                           
     0000FF05  _TIMA_REG                          
     0000FF06  _TMA_REG                           
     0000FF07  _TAC_REG                           
     0000FF0F  _IF_REG                            
     0000FF10  _NR10_REG                          
     0000FF11  _NR11_REG                          
     0000FF12  _NR12_REG                          
     0000FF13  _NR13_REG                          
     0000FF14  _NR14_REG                          
     0000FF16  _NR21_REG                          
     0000FF17  _NR22_REG                          
     0000FF18  _NR23_REG                          
     0000FF19  _NR24_REG                          
     0000FF1A  _NR30_REG                          
     0000FF1B  _NR31_REG                          
     0000FF1C  _NR32_REG                          
     0000FF1D  _NR33_REG                          
     0000FF1E  _NR34_REG                          
     0000FF20  _NR41_REG                          
     0000FF21  _NR42_REG                          
     0000FF22  _NR43_REG                          
     0000FF23  _NR44_REG                          
     0000FF24  _NR50_REG                          
     0000FF25  _NR51_REG                          
     0000FF26  _NR52_REG                          
     0000FF30  _AUD3WAVE                          
     0000FF30  _PCM_SAMPLE                        
     0000FF30  __AUD3WAVERAM                      
     0000FF40  _LCDC_REG                          
     0000FF41  _STAT_REG                          
     0000FF42  _SCY_REG                           
     0000FF43  _SCX_REG                           
     0000FF44  _LY_REG                            
     0000FF45  _LYC_REG                           
     0000FF46  _DMA_REG                           
ASxxxx Linker V03.00/V05.40 + sdld,  page 16.
Hexadecimal  [32-Bits]

Area                                    Addr        Size        Decimal Bytes (Attributes)
--------------------------------        ----        ----        ------- ----- ------------
.  .ABS.                            00000000    00000000 =           0. bytes (ABS,CON)

      Value  Global                              Global Defined In Module
      -----  --------------------------------   ------------------------
     0000FF47  _BGP_REG                           
     0000FF48  _OBP0_REG                          
     0000FF49  _OBP1_REG                          
     0000FF4A  _WY_REG                            
     0000FF4B  _WX_REG                            
     0000FF4D  _KEY1_REG                          
     0000FF4F  _VBK_REG                           
     0000FF51  _HDMA1_REG                         
     0000FF52  _HDMA2_REG                         
     0000FF53  _HDMA3_REG                         
     0000FF54  _HDMA4_REG                         
     0000FF55  _HDMA5_REG                         
     0000FF56  _RP_REG                            
     0000FF68  _BCPS_REG                          
     0000FF69  _BCPD_REG                          
     0000FF6A  _OCPS_REG                          
     0000FF6B  _OCPD_REG                          
     0000FF70  _SVBK_REG                          
     0000FF76  _PCM12_REG                         
     0000FF77  _PCM34_REG                         
     0000FF80  .refresh_OAM                    
     0000FF80  __HRAM                             
     0000FFFF  _IE_REG                            
     00014000  s__CODE_1                       
     00024000  s__CODE_2                       
     00034000  s__CODE_3                       
     00044000  s__CODE_4                       
     00054000  s__CODE_5                       
     00064000  s__CODE_6                       
     00074000  s__CODE_7                       
     00084000  s__CODE_8                       
     00094000  s__CODE_9                       
     000A4000  s__CODE_10                      
     000B4000  s__CODE_11                      
ASxxxx Linker V03.00/V05.40 + sdld,  page 17.
Hexadecimal  [32-Bits]

Area                                    Addr        Size        Decimal Bytes (Attributes)
--------------------------------        ----        ----        ------- ----- ------------
_CODE                               00000200    00000E64 =        3684. bytes (REL,CON)

      Value  Global                              Global Defined In Module
      -----  --------------------------------   ------------------------
     00000200  ___HandleCrash                     
     0000020A  _SIO_send_byte                     
     0000021D  _SIO_receive                       
     0000022E  _GetWinAddr                        
     00000236  _GetBkgAddr                        
     00000244  _state_init                        
     00000249  _state_update                      
     0000026B  _ui_time_masks                     
     00000273  _ui_print_shift_char               
     000002F6  _ui_draw_frame_row                 
     000002FF  .ui_draw_frame_row                 
     00000328  _script_cmds                       vm_instructions
     00000560  _save_signature                    game_signature
     00000564  _start_scene_x                     
     00000566  _start_scene_y                     
     00000568  _start_scene_dir                   
     00000569  _start_scene                       
     0000056C  _start_player_move_speed           
     0000056D  _start_player_anim_tick            
     0000056E  _ui_fonts                          
     00000571  _core_reset_hook                   main
     00000579  _main                              main
     00000581  _state_start_fns                   
     00000593  _state_update_fns                  
     000005A5  _hUGE_init                         hUGEDriver_obj
     000005A7  hUGE_init                          hUGEDriver_obj
     000005FD  _hUGE_mute_channel                 hUGEDriver_obj
     000005FF  hUGE_mute_channel                  hUGEDriver_obj
     0000084D  _hUGE_set_position                 hUGEDriver_obj
     0000084F  hUGE_set_position                  hUGEDriver_obj
     00000A14  _hUGE_dosound                      hUGEDriver_obj
     00000A14  hUGE_dosound                       hUGEDriver_obj
     00000D40  _get_vram_byte                     
     00000D48  _get_win_tile_xy                   
     00000D50  _get_bkg_tile_xy                   
     00000D77  _hide_sprites_range                Metasprites
     00000DA6  __mulsuchar                        mul
     00000DA9  __muluschar                        mul
     00000DB2  __mulschar                         mul
     00000DBA  __mulint                           mul
     00000DD9  __muluchar                         mul
     00000DEB  _set_vram_byte                     
     00000DF4  _set_win_tile_xy                   
     00000DFD  _set_bkg_tile_xy                   
     00000E2C  .sgb_check                         
     00000E2C  _sgb_check                         
     00000E74  _sgb_transfer                      
     00000E79  .sgb_transfer                      
     00000EBA  .copy_vram                         
     00000EC0  _get_data                          
ASxxxx Linker V03.00/V05.40 + sdld,  page 18.
Hexadecimal  [32-Bits]

Area                                    Addr        Size        Decimal Bytes (Attributes)
--------------------------------        ----        ----        ------- ----- ------------
_CODE                               00000200    00000E64 =        3684. bytes (REL,CON)

      Value  Global                              Global Defined In Module
      -----  --------------------------------   ------------------------
     00000EC0  _set_data                          
     00000EC0  _vmemcpy                           
     00000F0E  ___move_metasprite                 Metasprites
     00000F4B  ___memcpy                          
     00000F4B  _memcpy                            
     00000F7D  __divsuchar                        divmod
     00000F83  __modsuchar                        divmod
     00000F8C  __divuschar                        divmod
     00000F95  __moduschar                        divmod
     00000FA1  __divschar                         divmod
     00000FA6  __modschar                         divmod
     00000FAD  __divsint                          divmod
     00000FB6  __modsint                          divmod
     00000FC2  __divuchar                         divmod
     00000FC7  __moduchar                         divmod
     00000FCE  __divuint                          divmod
     00000FD7  __moduint                          divmod
     00000FE3  .div8                              divmod
     00000FE3  .mod8                              divmod
     00000FEB  .div16                             divmod
     00000FEB  .mod16                             divmod
     00001021  .divu8                             divmod
     00001021  .modu8                             divmod
     00001024  .divu16                            divmod
     00001024  .modu16                            divmod
ASxxxx Linker V03.00/V05.40 + sdld,  page 19.
Hexadecimal  [32-Bits]

Area                                    Addr        Size        Decimal Bytes (Attributes)
--------------------------------        ----        ----        ------- ----- ------------
_HEADER0                            00000000    00000001 =           1. bytes (ABS,CON)

      Value  Global                              Global Defined In Module
      -----  --------------------------------   ------------------------
     00000020  .call_hl                           Runtime

ASxxxx Linker V03.00/V05.40 + sdld,  page 20.
Hexadecimal  [32-Bits]

Area                                    Addr        Size        Decimal Bytes (Attributes)
--------------------------------        ----        ----        ------- ----- ------------
_HEADER1                            00000000    00000005 =           5. bytes (ABS,CON)

      Value  Global                              Global Defined In Module
      -----  --------------------------------   ------------------------
     00000028  .MemsetSmall                       Runtime

ASxxxx Linker V03.00/V05.40 + sdld,  page 21.
Hexadecimal  [32-Bits]

Area                                    Addr        Size        Decimal Bytes (Attributes)
--------------------------------        ----        ----        ------- ----- ------------
_HEADER2                            00000000    00000007 =           7. bytes (ABS,CON)

      Value  Global                              Global Defined In Module
      -----  --------------------------------   ------------------------
     00000030  .MemcpySmall                       Runtime

ASxxxx Linker V03.00/V05.40 + sdld,  page 22.
Hexadecimal  [32-Bits]

Area                                    Addr        Size        Decimal Bytes (Attributes)
--------------------------------        ----        ----        ------- ----- ------------
_HEADER3                            00000000    00000008 =           8. bytes (ABS,CON)

      Value  Global                              Global Defined In Module
      -----  --------------------------------   ------------------------
ASxxxx Linker V03.00/V05.40 + sdld,  page 23.
Hexadecimal  [32-Bits]

Area                                    Addr        Size        Decimal Bytes (Attributes)
--------------------------------        ----        ----        ------- ----- ------------
_HEADER4                            00000000    00000060 =          96. bytes (ABS,CON)

      Value  Global                              Global Defined In Module
      -----  --------------------------------   ------------------------
     00000080  .int                               Runtime
     0000008F  _wait_int_handler                  Runtime
     0000009C  __standard_VBL_handler             Runtime
     000000AB  _refresh_OAM                       Runtime
     000000CC  _set_interrupts                    Runtime

ASxxxx Linker V03.00/V05.40 + sdld,  page 24.
Hexadecimal  [32-Bits]

Area                                    Addr        Size        Decimal Bytes (Attributes)
--------------------------------        ----        ----        ------- ----- ------------
_HEADER5                            00000000    00000001 =           1. bytes (ABS,CON)

      Value  Global                              Global Defined In Module
      -----  --------------------------------   ------------------------
ASxxxx Linker V03.00/V05.40 + sdld,  page 25.
Hexadecimal  [32-Bits]

Area                                    Addr        Size        Decimal Bytes (Attributes)
--------------------------------        ----        ----        ------- ----- ------------
_HEADER6                            00000000    00000002 =           2. bytes (ABS,CON)

      Value  Global                              Global Defined In Module
      -----  --------------------------------   ------------------------
ASxxxx Linker V03.00/V05.40 + sdld,  page 26.
Hexadecimal  [32-Bits]

Area                                    Addr        Size        Decimal Bytes (Attributes)
--------------------------------        ----        ----        ------- ----- ------------
_HEADER7                            00000000    00000030 =          48. bytes (ABS,CON)

      Value  Global                              Global Defined In Module
      -----  --------------------------------   ------------------------
ASxxxx Linker V03.00/V05.40 + sdld,  page 27.
Hexadecimal  [32-Bits]

Area                                    Addr        Size        Decimal Bytes (Attributes)
--------------------------------        ----        ----        ------- ----- ------------
_HEADER8                            00000000    00000006 =           6. bytes (ABS,CON)

      Value  Global                              Global Defined In Module
      -----  --------------------------------   ------------------------
ASxxxx Linker V03.00/V05.40 + sdld,  page 28.
Hexadecimal  [32-Bits]

Area                                    Addr        Size        Decimal Bytes (Attributes)
--------------------------------        ----        ----        ------- ----- ------------
_HEADER9                            00000000    00000003 =           3. bytes (ABS,CON)

      Value  Global                              Global Defined In Module
      -----  --------------------------------   ------------------------
ASxxxx Linker V03.00/V05.40 + sdld,  page 29.
Hexadecimal  [32-Bits]

Area                                    Addr        Size        Decimal Bytes (Attributes)
--------------------------------        ----        ----        ------- ----- ------------
_HEADERa                            00000000    00000001 =           1. bytes (ABS,CON)

      Value  Global                              Global Defined In Module
      -----  --------------------------------   ------------------------
ASxxxx Linker V03.00/V05.40 + sdld,  page 30.
Hexadecimal  [32-Bits]

Area                                    Addr        Size        Decimal Bytes (Attributes)
--------------------------------        ----        ----        ------- ----- ------------
_HEADERb                            00000000    00000001 =           1. bytes (ABS,CON)

      Value  Global                              Global Defined In Module
      -----  --------------------------------   ------------------------
ASxxxx Linker V03.00/V05.40 + sdld,  page 31.
Hexadecimal  [32-Bits]

Area                                    Addr        Size        Decimal Bytes (Attributes)
--------------------------------        ----        ----        ------- ----- ------------
_HEADERc                            00000000    00000001 =           1. bytes (ABS,CON)

      Value  Global                              Global Defined In Module
      -----  --------------------------------   ------------------------
ASxxxx Linker V03.00/V05.40 + sdld,  page 32.
Hexadecimal  [32-Bits]

Area                                    Addr        Size        Decimal Bytes (Attributes)
--------------------------------        ----        ----        ------- ----- ------------
_HEADERd                            00000000    00000002 =           2. bytes (ABS,CON)

      Value  Global                              Global Defined In Module
      -----  --------------------------------   ------------------------
ASxxxx Linker V03.00/V05.40 + sdld,  page 33.
Hexadecimal  [32-Bits]

Area                                    Addr        Size        Decimal Bytes (Attributes)
--------------------------------        ----        ----        ------- ----- ------------
_HEADERe                            00000000    00000001 =           1. bytes (ABS,CON)

      Value  Global                              Global Defined In Module
      -----  --------------------------------   ------------------------
ASxxxx Linker V03.00/V05.40 + sdld,  page 34.
Hexadecimal  [32-Bits]

Area                                    Addr        Size        Decimal Bytes (Attributes)
--------------------------------        ----        ----        ------- ----- ------------
_HEADERf                            00000000    00000001 =           1. bytes (ABS,CON)

      Value  Global                              Global Defined In Module
      -----  --------------------------------   ------------------------
ASxxxx Linker V03.00/V05.40 + sdld,  page 35.
Hexadecimal  [32-Bits]

Area                                    Addr        Size        Decimal Bytes (Attributes)
--------------------------------        ----        ----        ------- ----- ------------
_HEADER10                           00000000    00000002 =           2. bytes (ABS,CON)

      Value  Global                              Global Defined In Module
      -----  --------------------------------   ------------------------
ASxxxx Linker V03.00/V05.40 + sdld,  page 36.
Hexadecimal  [32-Bits]

Area                                    Addr        Size        Decimal Bytes (Attributes)
--------------------------------        ----        ----        ------- ----- ------------
_HEADER11                           00000000    000000AB =         171. bytes (ABS,CON)

      Value  Global                              Global Defined In Module
      -----  --------------------------------   ------------------------
     00000150  .reset                             Runtime
     00000150  _reset                             Runtime
     00000157  .code_start                        Runtime
     000001B9  _exit                              Runtime
     000001BD  .wait_vbl_done                     Runtime
     000001BD  _vsync                             Runtime
     000001BD  _wait_vbl_done                     Runtime
     000001CD  .remove_VBL                        Runtime
     000001CD  _remove_VBL                        Runtime
     000001D0  .remove_int                        Runtime
     000001ED  .add_VBL                           Runtime
     000001ED  _add_VBL                           Runtime
     000001F0  .add_int                           Runtime

ASxxxx Linker V03.00/V05.40 + sdld,  page 37.
Hexadecimal  [32-Bits]

Area                                    Addr        Size        Decimal Bytes (Attributes)
--------------------------------        ----        ----        ------- ----- ------------
_HOME                               00001064    00002C6D =       11373. bytes (REL,CON)

      Value  Global                              Global Defined In Module
      -----  --------------------------------   ------------------------
     00001064  .memset_simple                     Runtime
     0000106D  .memcpy_simple                     Runtime
     0000108A  .display_off                       Runtime
     0000108A  _display_off                       Runtime
     000010A2  _actors_update                     actor
     000014FE  _SetBankedBkgData                  bankdata
     0000151A  _SetBankedSpriteData               bankdata
     00001536  _SetBankedBkgTiles                 bankdata
     00001552  _SetBankedWinTiles                 bankdata
     0000156E  _ReadBankedFarPtr                  bankdata
     00001590  _ReadBankedUWORD                   bankdata
     000015AA  _MemcpyBanked                      bankdata
     000015CC  _MemcpyVRAMBanked                  bankdata
     000015FB  _IndexOfFarPtr                     bankdata
     00001680  _camera_update                     camera
     000017B3  _load_animations                   data_manager
     0000180C  _events_update                     events
     000018DF  _timers_update                     events
     00001968  _input_update                      input
     0000198B  .sio_ISR                           
     000019E5  .timer_ISR                         
     000019FA  _simple_LCD_isr                    interrupts
     00001A79  _fullscreen_LCD_isr                interrupts
     00001AA5  _VBL_isr                           interrupts
     00001AEF  _isqrt                             math
     00001B4C  _sine_wave                         math
     00001C4C  _dir_lookup                        math
     00001C54  _dir_angle_lookup                  math
     00001C58  _hUGETrackerRoutine                music_manager
     00001C7F  _music_events_update               music_manager
     00001D01  _music_play_isr                    music_manager
     00001DA2  _parallax_LCD_isr                  parallax
     00001DDF  _projectiles_update                projectiles
     00002260  _projectiles_render                projectiles
     000023B5  _scroll_load_pending_row           scroll
     00002403  _scroll_load_row                   scroll
     00002443  _scroll_load_col                   scroll
     00002478  _scroll_load_pending_col           scroll
     000024C7  _set_bkg_submap                    
     0000250A  _set_xy_win_submap                 
     00002537  .set_xy_win_submap                 
     00002540  .set_xy_bkg_submap                 
     0000254F  .set_xy_submap                     
     00002599  _sfx_play_isr                      sfx_player
     00002672  _on_SIO_receive                    sio
     000026B3  _SIO_update                        sio
     0000271A  _ui_update                         ui
     00002852  _vm_sgb_transfer                   vm_sgb
     0000289F  _vm_load_text                      vm_ui
     00002AF5  _vm_switch                         vm
ASxxxx Linker V03.00/V05.40 + sdld,  page 38.
Hexadecimal  [32-Bits]

Area                                    Addr        Size        Decimal Bytes (Attributes)
--------------------------------        ----        ----        ------- ----- ------------
_HOME                               00001064    00002C6D =       11373. bytes (REL,CON)

      Value  Global                              Global Defined In Module
      -----  --------------------------------   ------------------------
     00002C26  _vm_beginthread                    vm
     00002D4A  _vm_rpn                            vm
     00003762  _vm_get_far                        vm
     000037D0  _vm_call_native                    vm
     000037E3  _VM_STEP                           vm
     0000384D  _script_runner_update              vm
     000039B2  _fill_win_rect                     
     000039C4  _rand                              
     000039C4  _randw                             
     000039EF  _initrand                          
     000039F1  .initrand                          
     000039FA  _get_bkg_data                      
     000039FA  _get_win_data                      
     00003A47  _get_sprite_data                   
     00003A7A  _abs                               abs
     00003A87  _set_win_tiles                     
     00003A9B  _set_tile_data                     
     00003AA0  _set_bkg_data                      
     00003AA0  _set_win_data                      
     00003AA8  _set_sprite_data                   
     00003AD8  _reverse                           reverse
     00003B0C  ___call__banked                    far_ptr
     00003B29  _to_far_ptr                        far_ptr
     00003B5F  .add_LCD                           
     00003B5F  _add_LCD                           
     00003B65  .remove_LCD                        
     00003B65  _remove_LCD                        
     00003B6B  .fill_rect_wtt                     
     00003B74  .fill_rect_btt                     
     00003BC1  _fill_bkg_rect                     
     00003BD3  .padup                             
     00003BD3  _waitpadup                         
     00003BE3  .jpad                              
     00003BE3  _joypad                            
     00003C0B  _waitpad                           
     00003C0C  .wait_pad                          
     00003C13  ___sdcc_call_hl                    call_hl
     00003C14  _memset                            memset
     00003C47  .set_xy_wtt                        SetTileMap
     00003C50  .set_xy_btt                        SetTileMap
     00003C5F  .set_xy_tt                         SetTileMap
     00003CA3  ___sdcc_bcall_ehl                  
     00003CBD  _set_bkg_tiles                     
ASxxxx Linker V03.00/V05.40 + sdld,  page 39.
Hexadecimal  [32-Bits]

Area                                    Addr        Size        Decimal Bytes (Attributes)
--------------------------------        ----        ----        ------- ----- ------------
_INITIALIZER                        00003CD1    0000001A =          26. bytes (REL,CON)

      Value  Global                              Global Defined In Module
      -----  --------------------------------   ------------------------
ASxxxx Linker V03.00/V05.40 + sdld,  page 40.
Hexadecimal  [32-Bits]

Area                                    Addr        Size        Decimal Bytes (Attributes)
--------------------------------        ----        ----        ------- ----- ------------
_GSINIT                             00003CEB    00000027 =          39. bytes (REL,CON)

      Value  Global                              Global Defined In Module
      -----  --------------------------------   ------------------------
     00003CEB  gsinit                             Runtime

ASxxxx Linker V03.00/V05.40 + sdld,  page 41.
Hexadecimal  [32-Bits]

Area                                    Addr        Size        Decimal Bytes (Attributes)
--------------------------------        ----        ----        ------- ----- ------------
_GSFINAL                            00003D12    00000001 =           1. bytes (REL,CON)

      Value  Global                              Global Defined In Module
      -----  --------------------------------   ------------------------
ASxxxx Linker V03.00/V05.40 + sdld,  page 42.
Hexadecimal  [32-Bits]

Area                                    Addr        Size        Decimal Bytes (Attributes)
--------------------------------        ----        ----        ------- ----- ------------
_DATA                               0000C0A0    00001994 =        6548. bytes (REL,CON)

      Value  Global                              Global Defined In Module
      -----  --------------------------------   ------------------------
     0000C0A0  __cpu                              Runtime
     0000C0A1  __is_GBA                           Runtime
     0000C0A2  .mode                              Runtime
     0000C0A3  .sys_time                          Runtime
     0000C0A3  _sys_time                          Runtime
     0000C0A5  .int_0x40                          Runtime
     0000C0B1  _actors                            actor
     0000C4F5  _actors_active_head                actor
     0000C4F7  _actors_active_tail                actor
     0000C4F9  _actors_inactive_head              actor
     0000C4FB  _screen_x                          actor
     0000C4FC  _screen_y                          actor
     0000C4FD  _invalid                           actor
     0000C4FF  _player_moving                     actor
     0000C500  _player_iframes                    actor
     0000C501  _player_collision_actor            actor
     0000C503  _emote_actor                       actor
     0000C505  _emote_timer                       actor
     0000C506  _allocated_sprite_tiles            actor
     0000C507  _allocated_hardware_sprites        actor
     0000C514  _camera_x                          camera
     0000C516  _camera_y                          camera
     0000C518  _camera_offset_x                   camera
     0000C519  _camera_offset_y                   camera
     0000C51A  _camera_deadzone_x                 camera
     0000C51B  _camera_deadzone_y                 camera
     0000C51C  _camera_settings                   camera
     0000C520  _current_scene                     data_manager
     0000C523  _image_bank                        data_manager
     0000C524  _image_ptr                         data_manager
     0000C526  _image_attr_bank                   data_manager
     0000C527  _image_attr_ptr                    data_manager
     0000C529  _collision_bank                    data_manager
     0000C52A  _collision_ptr                     data_manager
     0000C52C  _image_tile_width                  data_manager
     0000C52D  _image_tile_height                 data_manager
     0000C52E  _image_width                       data_manager
     0000C530  _image_height                      data_manager
     0000C532  _sprites_len                       data_manager
     0000C533  _actors_len                        data_manager
     0000C534  _projectiles_len                   data_manager
     0000C535  _player_sprite_len                 data_manager
     0000C536  _scene_type                        data_manager
     0000C537  _scene_LCD_type                    data_manager
     0000C538  _scene_stack                       data_manager
     0000C578  _scene_stack_ptr                   data_manager
     0000C57A  _scene_sprites_base_tiles          data_manager
     0000C5BA  _input_events                      events
     0000C5E2  _input_slots                       events
     0000C5EA  _timer_events                      events
ASxxxx Linker V03.00/V05.40 + sdld,  page 43.
Hexadecimal  [32-Bits]

Area                                    Addr        Size        Decimal Bytes (Attributes)
--------------------------------        ----        ----        ------- ----- ------------
_DATA                               0000C0A0    00001994 =        6548. bytes (REL,CON)

      Value  Global                              Global Defined In Module
      -----  --------------------------------   ------------------------
     0000C5FE  _timer_values                      events
     0000C606  _fade_running                      fade_manager
     0000C607  _fade_frames_per_step              fade_manager
     0000C608  _fade_timer                        fade_manager
     0000C610  _joypads                           input
     0000C615  _frame_joy                         input
     0000C616  _last_joy                          input
     0000C617  _recent_joy                        input
     0000C618  _SIO_status                        
     0000C619  _link_byte_sent                    
     0000C61A  _link_next_mode                    
     0000C61B  _save_blob_size                    load_save
     0000C61D  _routine_queue                     music_manager
     0000C621  _routine_queue_head                music_manager
     0000C622  _routine_queue_tail                music_manager
     0000C623  _music_events                      music_manager
     0000C637  _music_current_track_bank          music_manager
     0000C638  _music_mute_mask                   music_manager
     0000C639  _music_effective_mute              music_manager
     0000C63A  _music_next_track                  music_manager
     0000C63C  _music_current_track               music_manager
     0000C63E  _music_play_isr_counter            music_manager
     0000C63F  _music_play_isr_pause              music_manager
     0000C640  _music_global_mute_mask            music_manager
     0000C641  _music_sfx_priority                music_manager
     0000C642  _DMG_palette                       palette
     0000C645  _SprPalette                        palette
     0000C685  _parallax_rows                     parallax
     0000C697  _parallax_row                      parallax
     0000C699  _projectiles                       projectiles
     0000C752  _projectile_defs                   projectiles
     0000C7C5  _projectiles_active_head           projectiles
     0000C7C7  _projectiles_inactive_head         projectiles
     0000C7CE  _scroll_x                          scroll
     0000C7D0  _scroll_y                          scroll
     0000C7D2  _draw_scroll_x                     scroll
     0000C7D4  _draw_scroll_y                     scroll
     0000C7D6  _scroll_x_max                      scroll
     0000C7D8  _scroll_y_max                      scroll
     0000C7DA  _scroll_offset_x                   scroll
     0000C7DB  _scroll_offset_y                   scroll
     0000C7DC  _pending_h_x                       scroll
     0000C7DD  _pending_h_y                       scroll
     0000C7DE  _pending_h_i                       scroll
     0000C7DF  _pending_w_x                       scroll
     0000C7E0  _pending_w_y                       scroll
     0000C7E1  _pending_w_i                       scroll
     0000C7E2  _current_row                       scroll
     0000C7E4  _new_row                           scroll
     0000C7E6  _current_col                       scroll
     0000C7E8  _new_col                           scroll
ASxxxx Linker V03.00/V05.40 + sdld,  page 44.
Hexadecimal  [32-Bits]

Area                                    Addr        Size        Decimal Bytes (Attributes)
--------------------------------        ----        ----        ------- ----- ------------
_DATA                               0000C0A0    00001994 =        6548. bytes (REL,CON)

      Value  Global                              Global Defined In Module
      -----  --------------------------------   ------------------------
     0000C7EA  .image_tile_width                  
     0000C7EB  _sfx_play_bank                     sfx_player
     0000C7EC  _sfx_play_sample                   sfx_player
     0000C7EE  _sfx_frame_skip                    sfx_player
     0000C7EF  _link_operation_mode               sio
     0000C7F0  _link_packet                       sio
     0000C810  _link_packet_len                   sio
     0000C811  _link_packet_ptr                   sio
     0000C813  _link_packet_received              sio
     0000C814  _link_packet_snd_len               sio
     0000C815  _link_packet_snd_ptr               sio
     0000C817  _link_packet_sent                  sio
     0000C818  __is_CGB                           system
     0000C819  __is_SGB                           system
     0000C81A  __current_ram_bank                 system
     0000C81B  _triggers                          trigger
     0000C913  _last_trigger_tx                   trigger
     0000C914  _last_trigger_ty                   trigger
     0000C915  _last_trigger                      trigger
     0000C916  _win_pos_x                         ui
     0000C917  _win_dest_pos_x                    ui
     0000C918  _win_pos_y                         ui
     0000C919  _win_dest_pos_y                    ui
     0000C91A  _win_speed                         ui
     0000C91B  _text_drawn                        ui
     0000C91C  _current_text_speed                ui
     0000C91D  _text_wait                         ui
     0000C91E  _text_options                      ui
     0000C91F  _text_in_speed                     ui
     0000C920  _text_out_speed                    ui
     0000C921  _text_draw_speed                   ui
     0000C922  _text_ff_joypad                    ui
     0000C923  _text_ff                           ui
     0000C924  _text_bkg_fill                     ui
     0000C925  _ui_text_data                      ui
     0000CA2F  _vwf_current_mask                  ui
     0000CA30  _vwf_current_rotate                ui
     0000CA31  _vwf_inverse_map                   ui
     0000CA32  _vwf_direction                     ui
     0000CA33  _vwf_current_font_desc             ui
     0000CA3B  _vwf_current_font_bank             ui
     0000CA3C  _vwf_current_font_idx              ui
     0000CA3D  _text_render_base_addr             ui
     0000CA3F  _text_scroll_addr                  ui
     0000CA41  _text_scroll_width                 ui
     0000CA42  _text_scroll_height                ui
     0000CA43  _text_scroll_fill                  ui
     0000CA44  _text_sound_mask                   ui
     0000CA45  _text_sound_bank                   ui
     0000CA46  _text_sound_data                   ui
     0000CA48  _overlay_priority                  ui
ASxxxx Linker V03.00/V05.40 + sdld,  page 45.
Hexadecimal  [32-Bits]

Area                                    Addr        Size        Decimal Bytes (Attributes)
--------------------------------        ----        ----        ------- ----- ------------
_DATA                               0000C0A0    00001994 =        6548. bytes (REL,CON)

      Value  Global                              Global Defined In Module
      -----  --------------------------------   ------------------------
     0000CA49  _text_palette                      ui
     0000CA50  __itoa_fmt_len                     vm_ui_a
     0000CA51  .itoa_fmt_buf                      vm_ui_a
     0000CA54  _CTXS                              vm
     0000CB84  _first_ctx                         vm
     0000CB86  _free_ctxs                         vm
     0000CB88  _old_executing_ctx                 vm
     0000CB8A  _executing_ctx                     vm
     0000CB8C  _vm_lock_state                     vm
     0000CB8D  _vm_loaded_state                   vm
     0000CB8E  _vm_exception_code                 vm
     0000CB8F  _vm_exception_params_length        vm
     0000CB90  _vm_exception_params_bank          vm
     0000CB91  _vm_exception_params_offset        vm
     0000CB95  _script_memory                     vm
     0000D99B  _grounded                          platform
     0000D99C  _on_slope                          platform
     0000D99D  _slope_y                           platform
     0000D99E  _on_ladder                         platform
     0000D99F  _pl_vel_x                          platform
     0000D9A1  _pl_vel_y                          platform
     0000D9A3  _plat_min_vel                      platform
     0000D9A5  _plat_walk_vel                     platform
     0000D9A7  _plat_climb_vel                    platform
     0000D9A9  _plat_run_vel                      platform
     0000D9AB  _plat_walk_acc                     platform
     0000D9AD  _plat_run_acc                      platform
     0000D9AF  _plat_dec                          platform
     0000D9B1  _plat_jump_vel                     platform
     0000D9B3  _plat_grav                         platform
     0000D9B5  _plat_hold_grav                    platform
     0000D9B7  _plat_max_fall_vel                 platform
     0000D9B9  _shooter_reached_end               shmup
     0000D9BA  _shooter_dest                      shmup
     0000D9BC  _shooter_direction                 shmup
     0000D9BD  _topdown_grid                      topdown
     0000D9BE  ___rand_seed                       
     0000D9DC  _hUGE_current_wave                 hUGEDriver_obj
     0000D9DC  hUGE_current_wave                  hUGEDriver_obj
     0000D9DD  _hUGE_mute_mask                    hUGEDriver_obj
     0000DA24  ___call_banked_addr                far_ptr
     0000DA24  ___call_banked_ptr                 far_ptr
     0000DA26  ___call_banked_bank                far_ptr
     0000DA28  .int_0x48                          
     0000DA30  ___current_metasprite              Metasprites
     0000DA32  ___current_base_tile               Metasprites
     0000DA33  ___current_base_prop               Metasprites

ASxxxx Linker V03.00/V05.40 + sdld,  page 46.
Hexadecimal  [32-Bits]

Area                                    Addr        Size        Decimal Bytes (Attributes)
--------------------------------        ----        ----        ------- ----- ------------
_INITIALIZED                        0000DA34    0000001A =          26. bytes (REL,CON)

      Value  Global                              Global Defined In Module
      -----  --------------------------------   ------------------------
     0000DA34  _fade_style                        fade_manager
     0000DA35  _game_time                         game_time
     0000DA36  _PRN_PKT_START                     gbprinter
     0000DA44  _hide_sprites                      interrupts
     0000DA45  _show_actors_on_overlay            interrupts
     0000DA46  _overlay_cut_scanline              interrupts
     0000DA47  __submap_tile_offset               
     0000DA48  _triggers_len                      trigger
     0000DA49  _exchange_state                    vm_sio
     0000DA4A  _last_hit_trigger                  pointnclick
     0000DA4B  _shooter_scroll_speed              shmup
     0000DA4C  ___render_shadow_OAM               Metasprites
     0000DA4D  __map_tile_offset                  SetTileMap

ASxxxx Linker V03.00/V05.40 + sdld,  page 47.
Hexadecimal  [32-Bits]

Area                                    Addr        Size        Decimal Bytes (Attributes)
--------------------------------        ----        ----        ------- ----- ------------
_HRAM12                             00000000    00000003 =           3. bytes (ABS,CON)

      Value  Global                              Global Defined In Module
      -----  --------------------------------   ------------------------
     0000FF90  __current_bank                     Runtime
     0000FF92  __shadow_OAM_base                  Runtime

ASxxxx Linker V03.00/V05.40 + sdld,  page 48.
Hexadecimal  [32-Bits]

Area                                    Addr        Size        Decimal Bytes (Attributes)
--------------------------------        ----        ----        ------- ----- ------------
_CODE_1                             00014000    00003FFF =       16383. bytes (REL,CON)

      Value  Global                              Global Defined In Module
      -----  --------------------------------   ------------------------
     00014000  ___func_ACTOR                      actor
     00014000  _actors_init                       actor
     0001403A  _emote_offsets                     actor
     00014049  _emote_metasprite                  actor
     00014055  _player_init                       actor
     0001406A  _deactivate_actor                  actor
     000141CB  _activate_actor                    actor
     0001430A  _activate_actors_in_row            actor
     00014401  _activate_actors_in_col            actor
     00014552  _actor_set_frames                  actor
     000145A8  _actor_set_frame_offset            actor
     000145E3  _actor_get_frame_offset            actor
     000145F5  _actor_set_anim_idle               actor
     00014623  _actor_set_anim_moving             actor
     00014654  _actor_set_dir                     actor
     000146B9  _actor_at_tile                     actor
     0001478D  _actor_in_front_of_player          actor
     00014841  _actor_overlapping_player          actor
     00014ADA  _actor_overlapping_bb              actor
     00014CF9  _actors_handle_player_collision    actor
     00014D85  _check_collision_in_direction      actor
     000155A3  _ui_swap_tiles                     
     000155ED  _ui_print_make_mask_lr             
     00015609  _ui_print_make_mask_rl             
     00015625  _ui_init                           ui
     000156EC  _ui_load_tiles                     ui
     00015743  _ui_draw_frame                     ui
     000157B3  _ui_print_reset                    ui
     000157E7  _ui_set_start_tile                 ui
     00015813  _ui_print_render                   ui
     000159F0  _ui_draw_text_buffer_char          ui
     00015E27  _ui_run_menu                       ui
     00015FA1  _ui_run_modal                      ui
     0001605B  ___func_VM_SGB                     vm_sgb
     0001605B  ___func_bg_congratulations_tilem   bg_congratulations_tilemap
     0001605B  _bg_congratulations_tilemap        bg_congratulations_tilemap
     000161C3  ___func_scene_0_sprites            scene_0_sprites
     000161C3  _scene_0_sprites                   scene_0_sprites
     000161CC  _platform_init                     platform
     0001633F  _platform_update                   platform
     00017837  _shmup_init                        shmup
     000178D4  _shmup_update                      shmup
ASxxxx Linker V03.00/V05.40 + sdld,  page 49.
Hexadecimal  [32-Bits]

Area                                    Addr        Size        Decimal Bytes (Attributes)
--------------------------------        ----        ----        ------- ----- ------------
_CODE_2                             00024000    00003FFE =       16382. bytes (REL,CON)

      Value  Global                              Global Defined In Module
      -----  --------------------------------   ------------------------
     00024000  _bootstrap_script                  
     0002400B  ___func_VM_ACTOR                   vm_actor
     0002400B  _vm_actor_move_to                  vm_actor
     000249A7  _vm_actor_move_cancel              vm_actor
     000249DD  _vm_actor_activate                 vm_actor
     00024A2E  _vm_actor_deactivate               vm_actor
     00024A7F  _vm_actor_begin_update             vm_actor
     00024B06  _vm_actor_terminate_update         vm_actor
     00024B4D  _vm_actor_set_dir                  vm_actor
     00024B96  _vm_actor_set_anim                 vm_actor
     00024C24  _vm_actor_set_pos                  vm_actor
     00024C9E  _vm_actor_get_pos                  vm_actor
     00024D0D  _vm_actor_get_dir                  vm_actor
     00024D87  _vm_actor_get_angle                vm_actor
     00024E08  _vm_actor_emote                    vm_actor
     00024ECC  _vm_actor_set_bounds               vm_actor
     00024F2A  _vm_actor_set_spritesheet          vm_actor
     00024FF4  _vm_actor_replace_tile             vm_actor
     0002505F  _vm_actor_set_anim_tick            vm_actor
     0002509D  _vm_actor_set_move_speed           vm_actor
     000250DB  _vm_actor_set_anim_frame           vm_actor
     0002511F  _vm_actor_get_anim_frame           vm_actor
     00025169  _vm_actor_set_anim_set             vm_actor
     000251F1  _vm_actor_set_spritesheet_by_ref   vm_actor
     000252FE  _vm_actor_set_flags                vm_actor
     000253AC  ___func_VM_MAIN                    vm
     000253AC  _vm_call                           vm
     000253EE  _vm_ret                            vm
     0002544E  _vm_call_far                       vm
     000254CD  _vm_ret_far                        vm
     00025545  _vm_push                           vm
     00025570  _vm_pop                            vm
     000255AB  _vm_loop                           vm
     00025636  _vm_jump                           vm
     00025642  _wait_frames                       vm
     000256B8  _vm_invoke                         vm
     000257E5  _vm_join                           vm
     00025847  _vm_terminate                      vm
     00025874  _vm_if                             vm
     000259B9  _vm_if_const                       vm
     00025ACE  _vm_push_value                     vm
     00025B20  _vm_push_value_ind                 vm
     00025B95  _vm_push_reference                 vm
     00025BEC  _vm_reserve                        vm
     00025C1A  _vm_set                            vm
     00025C7B  _vm_set_const                      vm
     00025CA7  _vm_get_tlocal                     vm
     00025D34  _vm_test_terminate                 vm
     00025D3F  _vm_idle                           vm
     00025D4B  _vm_init_rng                       vm
ASxxxx Linker V03.00/V05.40 + sdld,  page 50.
Hexadecimal  [32-Bits]

Area                                    Addr        Size        Decimal Bytes (Attributes)
--------------------------------        ----        ----        ------- ----- ------------
_CODE_2                             00024000    00003FFE =       16382. bytes (REL,CON)

      Value  Global                              Global Defined In Module
      -----  --------------------------------   ------------------------
     00025D77  _vm_rand                           vm
     00025DB9  _vm_lock                           vm
     00025DC8  _vm_unlock                         vm
     00025DDB  _vm_raise                          vm
     00025E1D  _vm_set_indirect                   vm
     00025E98  _vm_get_indirect                   vm
     00025F13  _vm_poll_loaded                    vm
     00025F43  _vm_memset                         vm
     00025F7D  _vm_memcpy                         vm
     00025FFA  _script_runner_init                vm
     000260B1  _script_execute                    vm
     00026217  _script_terminate                  vm
     0002627C  _script_detach_hthread             vm
     000262B8  ___func_bg_loser_tileset           bg_loser_tileset
     000262B8  _bg_loser_tileset                  bg_loser_tileset
     0002675A  ___func_font_gbs_mono              font_gbs_mono
     0002750A  _font_gbs_mono                     font_gbs_mono
     00027FE9  _song_song_template_Data           song_song_template_Data

ASxxxx Linker V03.00/V05.40 + sdld,  page 51.
Hexadecimal  [32-Bits]

Area                                    Addr        Size        Decimal Bytes (Attributes)
--------------------------------        ----        ----        ------- ----- ------------
_CODE_11                            000B4000    0000156F =        5487. bytes (REL,CON)

      Value  Global                              Global Defined In Module
      -----  --------------------------------   ------------------------
     000B4000  _camera_init                       camera
     000B4026  _input_init                        input
     000B404C  _remove_LCD_ISRs                   interrupts
     000B4067  _palette_init                      palette
     000B4075  _parallax_init                     parallax
     000B4095  _scroll_rect                       
     000B40D2  _SIO_init                          sio
     000B40FB  _actor_0_interact                  actor_0_interact
     000B411C  _actor_10_interact                 actor_10_interact
     000B413D  _actor_100_interact                actor_100_interact
     000B415E  _actor_101_interact                actor_101_interact
     000B417F  _actor_102_interact                actor_102_interact
     000B41A0  _actor_103_interact                actor_103_interact
     000B41C1  _actor_104_interact                actor_104_interact
     000B41E2  _actor_105_interact                actor_105_interact
     000B4203  _actor_106_interact                actor_106_interact
     000B4224  _actor_107_interact                actor_107_interact
     000B4245  _actor_108_interact                actor_108_interact
     000B4266  _actor_109_interact                actor_109_interact
     000B4287  _actor_110_interact                actor_110_interact
     000B42A8  _actor_111_interact                actor_111_interact
     000B42C9  _actor_112_interact                actor_112_interact
     000B42EA  _actor_113_interact                actor_113_interact
     000B430B  _actor_114_interact                actor_114_interact
     000B432C  _actor_115_interact                actor_115_interact
     000B434D  _actor_116_interact                actor_116_interact
     000B436E  _actor_117_interact                actor_117_interact
     000B438F  _actor_118_interact                actor_118_interact
     000B43B0  _actor_119_interact                actor_119_interact
     000B43D1  _actor_17_interact                 actor_17_interact
     000B43F2  _actor_18_interact                 actor_18_interact
     000B4413  _actor_19_interact                 actor_19_interact
     000B4434  _actor_24_interact                 actor_24_interact
     000B4455  _actor_28_interact                 actor_28_interact
     000B4476  _actor_29_interact                 actor_29_interact
     000B4497  _actor_3_interact                  actor_3_interact
     000B44B8  _actor_30_interact                 actor_30_interact
     000B44D9  _actor_32_interact                 actor_32_interact
     000B44FA  _actor_33_interact                 actor_33_interact
     000B451B  _actor_34_interact                 actor_34_interact
     000B453C  _actor_35_interact                 actor_35_interact
     000B455D  _actor_36_interact                 actor_36_interact
     000B457E  _actor_37_interact                 actor_37_interact
     000B459F  _actor_38_interact                 actor_38_interact
     000B45C0  _actor_39_interact                 actor_39_interact
     000B45E1  _actor_40_interact                 actor_40_interact
     000B4602  _actor_41_interact                 actor_41_interact
     000B4623  _actor_42_interact                 actor_42_interact
     000B4644  _actor_43_interact                 actor_43_interact
     000B4665  _actor_44_interact                 actor_44_interact
ASxxxx Linker V03.00/V05.40 + sdld,  page 52.
Hexadecimal  [32-Bits]

Area                                    Addr        Size        Decimal Bytes (Attributes)
--------------------------------        ----        ----        ------- ----- ------------
_CODE_11                            000B4000    0000156F =        5487. bytes (REL,CON)

      Value  Global                              Global Defined In Module
      -----  --------------------------------   ------------------------
     000B4686  _actor_45_interact                 actor_45_interact
     000B46A7  _actor_46_interact                 actor_46_interact
     000B46C8  _actor_47_interact                 actor_47_interact
     000B46E9  _actor_48_interact                 actor_48_interact
     000B470A  _actor_49_interact                 actor_49_interact
     000B472B  _actor_50_interact                 actor_50_interact
     000B474C  _actor_51_interact                 actor_51_interact
     000B476D  _actor_52_interact                 actor_52_interact
     000B478E  _actor_53_interact                 actor_53_interact
     000B47AF  _actor_54_interact                 actor_54_interact
     000B47D0  _actor_55_interact                 actor_55_interact
     000B47F1  _actor_56_interact                 actor_56_interact
     000B4812  _actor_57_interact                 actor_57_interact
     000B4833  _actor_58_interact                 actor_58_interact
     000B4854  _actor_59_interact                 actor_59_interact
     000B4875  _actor_6_interact                  actor_6_interact
     000B4896  _actor_60_interact                 actor_60_interact
     000B48B7  _actor_61_interact                 actor_61_interact
     000B48D8  _actor_62_interact                 actor_62_interact
     000B48F9  _actor_63_interact                 actor_63_interact
     000B491A  _actor_64_interact                 actor_64_interact
     000B493B  _actor_65_interact                 actor_65_interact
     000B495C  _actor_66_interact                 actor_66_interact
     000B497D  _actor_67_interact                 actor_67_interact
     000B499E  _actor_68_interact                 actor_68_interact
     000B49BF  _actor_69_interact                 actor_69_interact
     000B49E0  _actor_70_interact                 actor_70_interact
     000B4A01  _actor_71_interact                 actor_71_interact
     000B4A22  _actor_72_interact                 actor_72_interact
     000B4A43  _actor_73_interact                 actor_73_interact
     000B4A64  _actor_74_interact                 actor_74_interact
     000B4A85  _actor_75_interact                 actor_75_interact
     000B4AA6  _actor_76_interact                 actor_76_interact
     000B4AC7  _actor_77_interact                 actor_77_interact
     000B4AE8  _actor_78_interact                 actor_78_interact
     000B4B09  _actor_79_interact                 actor_79_interact
     000B4B2A  _actor_80_interact                 actor_80_interact
     000B4B4B  _actor_81_interact                 actor_81_interact
     000B4B6C  _actor_82_interact                 actor_82_interact
     000B4B8D  _actor_83_interact                 actor_83_interact
     000B4BAE  _actor_84_interact                 actor_84_interact
     000B4BCF  _actor_85_interact                 actor_85_interact
     000B4BF0  _actor_86_interact                 actor_86_interact
     000B4C11  _actor_87_interact                 actor_87_interact
     000B4C32  _actor_88_interact                 actor_88_interact
     000B4C53  _actor_89_interact                 actor_89_interact
     000B4C74  _actor_9_interact                  actor_9_interact
     000B4C95  _actor_90_interact                 actor_90_interact
     000B4CB6  _actor_91_interact                 actor_91_interact
     000B4CD7  _actor_92_interact                 actor_92_interact
     000B4CF8  _actor_93_interact                 actor_93_interact
ASxxxx Linker V03.00/V05.40 + sdld,  page 53.
Hexadecimal  [32-Bits]

Area                                    Addr        Size        Decimal Bytes (Attributes)
--------------------------------        ----        ----        ------- ----- ------------
_CODE_11                            000B4000    0000156F =        5487. bytes (REL,CON)

      Value  Global                              Global Defined In Module
      -----  --------------------------------   ------------------------
     000B4D19  _actor_94_interact                 actor_94_interact
     000B4D3A  _actor_95_interact                 actor_95_interact
     000B4D5B  _actor_96_interact                 actor_96_interact
     000B4D7C  _actor_97_interact                 actor_97_interact
     000B4D9D  _actor_98_interact                 actor_98_interact
     000B4DBE  _actor_99_interact                 actor_99_interact
     000B4DDF  ___func_bg_arena1_copy             bg_arena1_copy
     000B4DDF  _bg_arena1_copy                    bg_arena1_copy
     000B4DED  ___func_bg_arena1                  bg_arena1
     000B4DED  _bg_arena1                         bg_arena1
     000B4DFB  ___func_bg_arena2_copy_2           bg_arena2_copy_2
     000B4DFB  _bg_arena2_copy_2                  bg_arena2_copy_2
     000B4E09  ___func_bg_arena2_copy_3           bg_arena2_copy_3
     000B4E09  _bg_arena2_copy_3                  bg_arena2_copy_3
     000B4E17  ___func_bg_arena2_copy_4           bg_arena2_copy_4
     000B4E17  _bg_arena2_copy_4                  bg_arena2_copy_4
     000B4E25  ___func_bg_arena2_copy_5           bg_arena2_copy_5
     000B4E25  _bg_arena2_copy_5                  bg_arena2_copy_5
     000B4E33  ___func_bg_arena2_copy_6           bg_arena2_copy_6
     000B4E33  _bg_arena2_copy_6                  bg_arena2_copy_6
     000B4E41  ___func_bg_arena2_copy_7           bg_arena2_copy_7
     000B4E41  _bg_arena2_copy_7                  bg_arena2_copy_7
     000B4E4F  ___func_bg_arena2_copy_8           bg_arena2_copy_8
     000B4E4F  _bg_arena2_copy_8                  bg_arena2_copy_8
     000B4E5D  ___func_bg_arena2_copy             bg_arena2_copy
     000B4E5D  _bg_arena2_copy                    bg_arena2_copy
     000B4E6B  ___func_bg_congratulations         bg_congratulations
     000B4E6B  _bg_congratulations                bg_congratulations
     000B4E79  ___func_bg_logo                    bg_logo
     000B4E79  _bg_logo                           bg_logo
     000B4E87  ___func_bg_loser                   bg_loser
     000B4E87  _bg_loser                          bg_loser
     000B4E95  ___func_bg_titlescreen             bg_titlescreen
     000B4E95  _bg_titlescreen                    bg_titlescreen
     000B4EA3  ___func_scene_0_projectiles        scene_0_projectiles
     000B4EA3  _scene_0_projectiles               scene_0_projectiles
     000B4ED1  ___func_scene_0                    scene_0
     000B4ED1  _scene_0                           scene_0
     000B4F0C  ___func_scene_1_projectiles        scene_1_projectiles
     000B4F0C  _scene_1_projectiles               scene_1_projectiles
     000B4F3A  ___func_scene_1                    scene_1
     000B4F3A  _scene_1                           scene_1
     000B4F75  ___func_scene_10_projectiles       scene_10_projectiles
     000B4F75  _scene_10_projectiles              scene_10_projectiles
     000B4FA3  ___func_scene_10_sprites           scene_10_sprites
     000B4FA3  _scene_10_sprites                  scene_10_sprites
     000B4FAC  ___func_scene_10                   scene_10
     000B4FAC  _scene_10                          scene_10
     000B4FE7  ___func_scene_11_projectiles       scene_11_projectiles
     000B4FE7  _scene_11_projectiles              scene_11_projectiles
     000B5015  ___func_scene_11_sprites           scene_11_sprites
ASxxxx Linker V03.00/V05.40 + sdld,  page 54.
Hexadecimal  [32-Bits]

Area                                    Addr        Size        Decimal Bytes (Attributes)
--------------------------------        ----        ----        ------- ----- ------------
_CODE_11                            000B4000    0000156F =        5487. bytes (REL,CON)

      Value  Global                              Global Defined In Module
      -----  --------------------------------   ------------------------
     000B5015  _scene_11_sprites                  scene_11_sprites
     000B501E  ___func_scene_11                   scene_11
     000B501E  _scene_11                          scene_11
     000B5059  ___func_scene_12_projectiles       scene_12_projectiles
     000B5059  _scene_12_projectiles              scene_12_projectiles
     000B5087  ___func_scene_12_sprites           scene_12_sprites
     000B5087  _scene_12_sprites                  scene_12_sprites
     000B5090  ___func_scene_12                   scene_12
     000B5090  _scene_12                          scene_12
     000B50CB  ___func_scene_13                   scene_13
     000B50CB  _scene_13                          scene_13
     000B5106  ___func_scene_14                   scene_14
     000B5106  _scene_14                          scene_14
     000B5141  ___func_scene_5_projectiles        scene_5_projectiles
     000B5141  _scene_5_projectiles               scene_5_projectiles
     000B516F  ___func_scene_5_sprites            scene_5_sprites
     000B516F  _scene_5_sprites                   scene_5_sprites
     000B5178  ___func_scene_5                    scene_5
     000B5178  _scene_5                           scene_5
     000B51B3  ___func_scene_6_projectiles        scene_6_projectiles
     000B51B3  _scene_6_projectiles               scene_6_projectiles
     000B51E1  ___func_scene_6_sprites            scene_6_sprites
     000B51E1  _scene_6_sprites                   scene_6_sprites
     000B51EA  ___func_scene_6                    scene_6
     000B51EA  _scene_6                           scene_6
     000B5225  ___func_scene_7_projectiles        scene_7_projectiles
     000B5225  _scene_7_projectiles               scene_7_projectiles
     000B5253  ___func_scene_7_sprites            scene_7_sprites
     000B5253  _scene_7_sprites                   scene_7_sprites
     000B525C  ___func_scene_7                    scene_7
     000B525C  _scene_7                           scene_7
     000B5297  ___func_scene_8_projectiles        scene_8_projectiles
     000B5297  _scene_8_projectiles               scene_8_projectiles
     000B52C5  ___func_scene_8_sprites            scene_8_sprites
     000B52C5  _scene_8_sprites                   scene_8_sprites
     000B52CE  ___func_scene_8                    scene_8
     000B52CE  _scene_8                           scene_8
     000B5309  ___func_scene_9_projectiles        scene_9_projectiles
     000B5309  _scene_9_projectiles               scene_9_projectiles
     000B5337  ___func_scene_9_sprites            scene_9_sprites
     000B5337  _scene_9_sprites                   scene_9_sprites
     000B5340  ___func_scene_9                    scene_9
     000B5340  _scene_9                           scene_9
     000B537B  ___func_scene_logo                 scene_logo
     000B537B  _scene_logo                        scene_logo
     000B53B6  ___func_scene_title_screen         scene_title_screen
     000B53B6  _scene_title_screen                scene_title_screen
     000B53F1  _script_input_6                    script_input_6
     000B5433  _script_input_7                    script_input_7
     000B5475  _script_input_8                    script_input_8
     000B54B7  _script_input_9                    script_input_9
ASxxxx Linker V03.00/V05.40 + sdld,  page 55.
Hexadecimal  [32-Bits]

Area                                    Addr        Size        Decimal Bytes (Attributes)
--------------------------------        ----        ----        ------- ----- ------------
_CODE_11                            000B4000    0000156F =        5487. bytes (REL,CON)

      Value  Global                              Global Defined In Module
      -----  --------------------------------   ------------------------
     000B54F9  ___func_sprite_bullet_tileset      sprite_bullet_tileset
     000B54F9  _sprite_bullet_tileset             sprite_bullet_tileset
     000B551B  ___func_sprite_bullet              sprite_bullet
     000B551B  _sprite_bullet_metasprite_0        sprite_bullet
     000B552F  _sprite_bullet_metasprites         sprite_bullet
     000B5531  _sprite_bullet_animations          sprite_bullet
     000B5541  _sprite_bullet_animations_lookup   sprite_bullet
     000B5543  _sprite_bullet                     sprite_bullet
     000B5556  _spritesheet_none_metasprite       spritesheet_none
     000B555A  _spritesheet_none_metasprites      spritesheet_none
     000B555C  _spritesheet_none                  spritesheet_none

ASxxxx Linker V03.00/V05.40 + sdld,  page 56.
Hexadecimal  [32-Bits]

Area                                    Addr        Size        Decimal Bytes (Attributes)
--------------------------------        ----        ----        ------- ----- ------------
_CODE_5                             00054000    00003FFD =       16381. bytes (REL,CON)

      Value  Global                              Global Defined In Module
      -----  --------------------------------   ------------------------
     00054000  _core_reset                        core
     00054075  _process_VM                        core
     000542F7  _core_run                          core
     000543CA  ___HandleCrash_banked              
     00054732  _printer_send_receive              gbprinter
     00054768  _printer_send_byte                 gbprinter
     0005477B  _printer_send_command              gbprinter
     0005479E  _printer_print_tile                gbprinter
     0005482F  _printer_wait                      gbprinter
     00054861  _gbprinter_detect                  gbprinter
     0005487B  _gbprinter_print_overlay           gbprinter
     00054A40  _data_init                         load_save
     00054A8B  _save_points                       load_save
     00054AEB  _data_slot_address                 load_save
     00054B63  _data_save                         load_save
     00054C24  _data_load                         load_save
     00054D38  _data_clear                        load_save
     00054D65  _data_peek                         load_save
     00054E06  _atan2                             math_atan2
     00054F9F  _atan2_table                       math_atan2
     00055107  _trigger_reset                     trigger
     00055117  _trigger_interact                  trigger
     00055156  _trigger_activate_at               trigger
     000551A1  _trigger_at_intersection           trigger
     000552C8  _trigger_activate_at_intersectio   trigger
     00055409  _trigger_at_tile                   trigger
     0005549A  ___func_VM_CAMERA                  vm_camera
     0005549A  _vm_camera_move_to                 vm_camera
     000556ED  _vm_camera_set_pos                 vm_camera
     00055734  _camera_shake_frames               vm_camera
     00055863  ___func_VM_GBPRINTER               vm_gbprinter
     00055863  _vm_print_detect                   vm_gbprinter
     000558B2  _vm_print_overlay                  vm_gbprinter
     00055907  ___func_scene_10_collisions        scene_10_collisions
     00055907  _scene_10_collisions               scene_10_collisions
     00055D07  ___func_scene_11_collisions        scene_11_collisions
     00055D07  _scene_11_collisions               scene_11_collisions
     00056107  ___func_scene_12_collisions        scene_12_collisions
     00056107  _scene_12_collisions               scene_12_collisions
     00056507  ___func_scene_5_collisions         scene_5_collisions
     00056507  _scene_5_collisions                scene_5_collisions
     00056907  ___func_scene_6_collisions         scene_6_collisions
     00056907  _scene_6_collisions                scene_6_collisions
     00056D07  ___func_scene_7_collisions         scene_7_collisions
     00056D07  _scene_7_collisions                scene_7_collisions
     00057107  ___func_scene_8_collisions         scene_8_collisions
     00057107  _scene_8_collisions                scene_8_collisions
     00057507  ___func_scene_9_collisions         scene_9_collisions
     00057507  _scene_9_collisions                scene_9_collisions
     00057907  ___func_sprite_player_tileset      sprite_player_tileset
ASxxxx Linker V03.00/V05.40 + sdld,  page 57.
Hexadecimal  [32-Bits]

Area                                    Addr        Size        Decimal Bytes (Attributes)
--------------------------------        ----        ----        ------- ----- ------------
_CODE_5                             00054000    00003FFD =       16381. bytes (REL,CON)

      Value  Global                              Global Defined In Module
      -----  --------------------------------   ------------------------
     00057907  _sprite_player_tileset             sprite_player_tileset
     00057C89  _pointnclick_init                  pointnclick
     00057CC2  _pointnclick_update                pointnclick

ASxxxx Linker V03.00/V05.40 + sdld,  page 58.
Hexadecimal  [32-Bits]

Area                                    Addr        Size        Decimal Bytes (Attributes)
--------------------------------        ----        ----        ------- ----- ------------
_CRASH_HEADER0                      00000000    00000005 =           5. bytes (ABS,CON)

      Value  Global                              Global Defined In Module
      -----  --------------------------------   ------------------------
ASxxxx Linker V03.00/V05.40 + sdld,  page 59.
Hexadecimal  [32-Bits]

Area                                    Addr        Size        Decimal Bytes (Attributes)
--------------------------------        ----        ----        ------- ----- ------------
_CRASH_HEADER1                      00000000    00000004 =           4. bytes (ABS,CON)

      Value  Global                              Global Defined In Module
      -----  --------------------------------   ------------------------
ASxxxx Linker V03.00/V05.40 + sdld,  page 60.
Hexadecimal  [32-Bits]

Area                                    Addr        Size        Decimal Bytes (Attributes)
--------------------------------        ----        ----        ------- ----- ------------
_CRASH_SCRATCH2                     00000000    000001CB =         459. bytes (ABS,CON)

      Value  Global                              Global Defined In Module
      -----  --------------------------------   ------------------------
ASxxxx Linker V03.00/V05.40 + sdld,  page 61.
Hexadecimal  [32-Bits]

Area                                    Addr        Size        Decimal Bytes (Attributes)
--------------------------------        ----        ----        ------- ----- ------------
_CODE_3                             00034000    00003FFF =       16383. bytes (REL,CON)

      Value  Global                              Global Defined In Module
      -----  --------------------------------   ------------------------
     00034000  _load_init                         data_manager
     00034013  _spritesheet_none_far              data_manager
     00034016  _load_bkg_tileset                  data_manager
     000340F3  _load_background                   data_manager
     00034191  _load_sprite                       data_manager
     000341E4  _load_bounds                       data_manager
     00034201  _do_load_palette                   data_manager
     00034286  _load_scene                        data_manager
     000348EC  _load_player                       data_manager
     00034935  _load_emote                        data_manager
     0003494E  _scroll_init                       scroll
     00034978  _scroll_reset                      scroll
     00034998  _scroll_update                     scroll
     00034ACF  _scroll_viewport                   scroll
     00034F68  _scroll_repaint                    scroll
     00034F78  _scroll_render_rows                scroll
     0003500E  _scroll_queue_row                  scroll
     00035030  _scroll_queue_col                  scroll
     0003507B  ___func_VM_UI                      vm_ui
     0003507B  _vm_display_text                   vm_ui
     000350AE  _vm_switch_text_layer              vm_ui
     000350C8  _vm_overlay_setpos                 vm_ui
     000350E2  _vm_overlay_wait                   vm_ui
     00035172  _vm_overlay_move_to                vm_ui
     000351B6  _vm_overlay_set_scroll             vm_ui
     000351EF  _vm_overlay_clear                  vm_ui
     0003528F  _vm_overlay_show                   vm_ui
     000352DD  _vm_choice                         vm_ui
     000353F8  _vm_set_font                       vm_ui
     00035427  _vm_overlay_scroll                 vm_ui
     0003545E  _vm_overlay_set_submap             vm_ui
     00035497  _vm_overlay_set_submap_ex          vm_ui
     00035513  _vm_overlay_set_map                vm_ui
     000355FD  _vm_set_text_sound                 vm_ui
     00035616  ___func_bg_congratulations_tiles   bg_congratulations_tileset
     00035616  _bg_congratulations_tileset        bg_congratulations_tileset
     000360A8  ___func_bg_logo_tileset            bg_logo_tileset
     000360A8  _bg_logo_tileset                   bg_logo_tileset
     0003663A  ___func_bg_titlescreen_tileset     bg_titlescreen_tileset
     0003663A  _bg_titlescreen_tileset            bg_titlescreen_tileset
     00036D0C  ___func_palette_0                  palette_0
     00036D0C  _palette_0                         palette_0
     00036D0F  ___func_scene_1_sprites            scene_1_sprites
     00036D0F  _scene_1_sprites                   scene_1_sprites
     00036D18  _scene_13_init                     scene_13_init
     00036D70  ___func_sprite_npc003_tileset      sprite_npc003_tileset
     00036D70  _sprite_npc003_tileset             sprite_npc003_tileset
     00037272  _adventure_init                    adventure
     00037287  _adventure_update                  adventure
     0003793E  _topdown_init                      topdown
ASxxxx Linker V03.00/V05.40 + sdld,  page 62.
Hexadecimal  [32-Bits]

Area                                    Addr        Size        Decimal Bytes (Attributes)
--------------------------------        ----        ----        ------- ----- ------------
_CODE_3                             00034000    00003FFF =       16383. bytes (REL,CON)

      Value  Global                              Global Defined In Module
      -----  --------------------------------   ------------------------
     000379D5  _topdown_update                    topdown
ASxxxx Linker V03.00/V05.40 + sdld,  page 63.
Hexadecimal  [32-Bits]

Area                                    Addr        Size        Decimal Bytes (Attributes)
--------------------------------        ----        ----        ------- ----- ------------
_CODE_10                            000A4000    00003FFC =       16380. bytes (REL,CON)

      Value  Global                              Global Defined In Module
      -----  --------------------------------   ------------------------
     000A4000  _events_init                       events
     000A4040  _timers_init                       events
     000A40E8  _save_sram_banks                   
     000A4170  _erase_flash                       
     000A4186  _restore_sram_bank                 flasher
     000A41BC  _restore_sram                      flasher
     000A41D2  _save_sram                         flasher
     000A41FE  _music_init_driver                 music_manager
     000A425A  _music_init_events                 music_manager
     000A4296  _music_events_poll                 music_manager
     000A42BE  _music_pause                       music_manager
     000A42E0  ___func_VM_LOAD_SAVE               vm_load_save
     000A42E0  _vm_save_clear                     vm_load_save
     000A42EF  _vm_save_peek                      vm_load_save
     000A4371  ___func_VM_MATH                    vm_math
     000A4371  _vm_sin_scale                      vm_math
     000A440D  _vm_cos_scale                      vm_math
     000A44AB  ___func_VM_MUSIC                   vm_music
     000A44AB  _vm_music_play                     vm_music
     000A44F8  _vm_music_stop                     vm_music
     000A451A  _vm_music_mute                     vm_music
     000A4558  _vm_music_routine                  vm_music
     000A457F  _vm_music_setpos                   vm_music
     000A4585  _vm_sound_mastervol                vm_music
     000A458B  _vm_sfx_play                       vm_music
     000A45FE  ___func_VM_PALETTE                 vm_palette
     000A45FE  _vm_load_palette                   vm_palette
     000A4752  ___func_VM_PROJECTILE              vm_projectiles
     000A4752  _vm_projectile_launch              vm_projectiles
     000A4793  _vm_projectile_load_type           vm_projectiles
     000A4825  ___func_VM_RTC                     vm_rtc
     000A4825  _vm_rtc_latch                      vm_rtc
     000A482D  _vm_rtc_get                        vm_rtc
     000A4894  _vm_rtc_set                        vm_rtc
     000A48F2  _vm_rtc_start                      vm_rtc
     000A4915  ___func_VM_SCENE                   vm_scene
     000A4915  _vm_scene_push                     vm_scene
     000A498B  _vm_scene_pop                      vm_scene
     000A4999  _vm_scene_pop_all                  vm_scene
     000A49A4  _vm_scene_stack_reset              vm_scene
     000A49AD  _itoa_fmt                          vm_ui_a
     000A49E6  .utoa_fmt                          vm_ui_a
     000A4A90  _actor_12_update                   actor_12_update
     000A4B6A  _actor_15_update                   actor_15_update
     000A4C44  _actor_16_update                   actor_16_update
     000A4D1E  _actor_2_update                    actor_2_update
     000A4DF8  _actor_22_update                   actor_22_update
     000A4ED2  _actor_23_update                   actor_23_update
     000A4FAC  _actor_26_update                   actor_26_update
     000A50DC  _actor_31_update                   actor_31_update
ASxxxx Linker V03.00/V05.40 + sdld,  page 64.
Hexadecimal  [32-Bits]

Area                                    Addr        Size        Decimal Bytes (Attributes)
--------------------------------        ----        ----        ------- ----- ------------
_CODE_10                            000A4000    00003FFC =       16380. bytes (REL,CON)

      Value  Global                              Global Defined In Module
      -----  --------------------------------   ------------------------
     000A51B6  _actor_5_update                    actor_5_update
     000A5290  _actor_8_update                    actor_8_update
     000A536A  _actor_92_update                   actor_92_update
     000A558E  _actor_93_update                   actor_93_update
     000A57B2  _actor_94_update                   actor_94_update
     000A59D6  _actor_95_update                   actor_95_update
     000A5BFA  _actor_96_update                   actor_96_update
     000A5E1E  _actor_97_update                   actor_97_update
     000A6042  _actor_98_update                   actor_98_update
     000A6266  _actor_99_update                   actor_99_update
     000A648A  ___func_bg_arena1_copy_tileset     bg_arena1_copy_tileset
     000A648A  _bg_arena1_copy_tileset            bg_arena1_copy_tileset
     000A65BC  ___func_bg_arena1_tileset          bg_arena1_tileset
     000A65BC  _bg_arena1_tileset                 bg_arena1_tileset
     000A66DE  ___func_bg_arena2_copy_2_tileset   bg_arena2_copy_2_tileset
     000A66DE  _bg_arena2_copy_2_tileset          bg_arena2_copy_2_tileset
     000A67A0  ___func_bg_arena2_copy_3_tileset   bg_arena2_copy_3_tileset
     000A67A0  _bg_arena2_copy_3_tileset          bg_arena2_copy_3_tileset
     000A6872  ___func_bg_arena2_copy_4_tileset   bg_arena2_copy_4_tileset
     000A6872  _bg_arena2_copy_4_tileset          bg_arena2_copy_4_tileset
     000A69D4  ___func_bg_arena2_copy_5_tileset   bg_arena2_copy_5_tileset
     000A69D4  _bg_arena2_copy_5_tileset          bg_arena2_copy_5_tileset
     000A6AA6  ___func_bg_arena2_copy_6_tileset   bg_arena2_copy_6_tileset
     000A6AA6  _bg_arena2_copy_6_tileset          bg_arena2_copy_6_tileset
     000A6BD8  ___func_bg_arena2_copy_7_tileset   bg_arena2_copy_7_tileset
     000A6BD8  _bg_arena2_copy_7_tileset          bg_arena2_copy_7_tileset
     000A6CAA  ___func_bg_arena2_copy_8_tileset   bg_arena2_copy_8_tileset
     000A6CAA  _bg_arena2_copy_8_tileset          bg_arena2_copy_8_tileset
     000A6DCC  ___func_bg_arena2_copy_tileset     bg_arena2_copy_tileset
     000A6DCC  _bg_arena2_copy_tileset            bg_arena2_copy_tileset
     000A6EEE  ___func_cursor_image               cursor_image
     000A6EEE  _cursor_image                      cursor_image
     000A6EFE  ___func_frame_image                frame_image
     000A6EFE  _frame_image                       frame_image
     000A6F8E  _scene_10_p_hit1                   scene_10_p_hit1
     000A7025  _scene_12_p_hit1                   scene_12_p_hit1
     000A7114  ___func_scene_13_collisions        scene_13_collisions
     000A7114  _scene_13_collisions               scene_13_collisions
     000A727C  ___func_scene_14_collisions        scene_14_collisions
     000A727C  _scene_14_collisions               scene_14_collisions
     000A73E4  _scene_14_init                     scene_14_init
     000A743C  _scene_5_p_hit1                    scene_5_p_hit1
     000A74BD  _scene_6_p_hit1                    scene_6_p_hit1
     000A753E  _scene_7_p_hit1                    scene_7_p_hit1
     000A75BF  _scene_8_p_hit1                    scene_8_p_hit1
     000A7640  _scene_9_p_hit1                    scene_9_p_hit1
     000A76C1  ___func_scene_logo_collisions      scene_logo_collisions
     000A76C1  _scene_logo_collisions             scene_logo_collisions
     000A7829  _scene_logo_init                   scene_logo_init
     000A789E  ___func_scene_title_screen_colli   scene_title_screen_collision
     000A789E  _scene_title_screen_collisions     scene_title_screen_collision
ASxxxx Linker V03.00/V05.40 + sdld,  page 65.
Hexadecimal  [32-Bits]

Area                                    Addr        Size        Decimal Bytes (Attributes)
--------------------------------        ----        ----        ------- ----- ------------
_CODE_10                            000A4000    00003FFC =       16380. bytes (REL,CON)

      Value  Global                              Global Defined In Module
      -----  --------------------------------   ------------------------
     000A7A06  _scene_title_screen_init           scene_title_screen_init
     000A7B25  _script_engine_init                
     000A7BA5  _script_input_1                    script_input_1
     000A7BE7  _script_input_2                    script_input_2
     000A7C29  _script_input_3                    script_input_3
     000A7C6B  _script_input_4                    script_input_4
     000A7CAD  _script_input_5                    script_input_5
     000A7CEF  ___func_sprite_hp                  sprite_hp
     000A7CEF  _sprite_hp_metasprite_0            sprite_hp
     000A7D13  _sprite_hp_metasprite_1            sprite_hp
     000A7D37  _sprite_hp_metasprite_2            sprite_hp
     000A7D5B  _sprite_hp_metasprite_3            sprite_hp
     000A7D7F  _sprite_hp_metasprites             sprite_hp
     000A7D89  _sprite_hp_animations              sprite_hp
     000A7D99  _sprite_hp_animations_lookup       sprite_hp
     000A7D9B  _sprite_hp                         sprite_hp
     000A7DAE  ___func_sprite_npc003              sprite_npc003
     000A7DAE  _sprite_npc003_metasprite_0        sprite_npc003
     000A7DC6  _sprite_npc003_metasprite_1        sprite_npc003
     000A7DDE  _sprite_npc003_metasprite_2        sprite_npc003
     000A7DF2  _sprite_npc003_metasprite_3        sprite_npc003
     000A7E0A  _sprite_npc003_metasprite_4        sprite_npc003
     000A7E22  _sprite_npc003_metasprite_5        sprite_npc003
     000A7E36  _sprite_npc003_metasprite_6        sprite_npc003
     000A7E4E  _sprite_npc003_metasprite_7        sprite_npc003
     000A7E62  _sprite_npc003_metasprite_8        sprite_npc003
     000A7E7A  _sprite_npc003_metasprite_9        sprite_npc003
     000A7E8E  _sprite_npc003_metasprite_10       sprite_npc003
     000A7EA6  _sprite_npc003_metasprites         sprite_npc003
     000A7ECE  _sprite_npc003_animations          sprite_npc003
     000A7EDE  _sprite_npc003_animations_lookup   sprite_npc003
     000A7EE0  _sprite_npc003                     sprite_npc003
     000A7EF3  ___func_sprite_player              sprite_player
     000A7EF3  _sprite_player_metasprite_0        sprite_player
     000A7F0F  _sprite_player_metasprite_1        sprite_player
     000A7F23  _sprite_player_metasprite_2        sprite_player
     000A7F3F  _sprite_player_metasprite_3        sprite_player
     000A7F53  _sprite_player_metasprite_4        sprite_player
     000A7F67  _sprite_player_metasprite_5        sprite_player
     000A7F7F  _sprite_player_metasprite_6        sprite_player
     000A7F93  _sprite_player_metasprite_7        sprite_player
     000A7FA7  _sprite_player_metasprite_8        sprite_player
     000A7FBF  _sprite_player_metasprites         sprite_player
     000A7FD7  _sprite_player_animations          sprite_player
     000A7FE7  _sprite_player_animations_lookup   sprite_player
     000A7FE9  _sprite_player                     sprite_player
ASxxxx Linker V03.00/V05.40 + sdld,  page 66.
Hexadecimal  [32-Bits]

Area                                    Addr        Size        Decimal Bytes (Attributes)
--------------------------------        ----        ----        ------- ----- ------------
_CODE_6                             00064000    00003FFC =       16380. bytes (REL,CON)

      Value  Global                              Global Defined In Module
      -----  --------------------------------   ------------------------
     00064000  _DMGFadeToWhiteStep                fade_manager
     00064021  _DMGFadeToBlackStep                fade_manager
     00064044  _ApplyPaletteChangeDMG             fade_manager
     0006409A  _fade_speeds                       fade_manager
     000640A1  _fade_init                         fade_manager
     000640B7  _fade_in                           fade_manager
     000640D9  _fade_out                          fade_manager
     000640FD  _fade_update                       fade_manager
     00064144  _fade_applypalettechange           fade_manager
     0006414A  _fade_setspeed                     fade_manager
     0006415A  _fade_in_modal                     fade_manager
     00064174  _fade_out_modal                    fade_manager
     0006418E  ___func_VM_SIO                     vm_sio
     0006418E  _vm_sio_set_mode                   vm_sio
     000641A0  _vm_sio_exchange                   vm_sio
     00064482  _actor_0_update                    actor_0_update
     000646A6  _actor_10_update                   actor_10_update
     000648CA  _actor_100_update                  actor_100_update
     00064AEE  _actor_101_update                  actor_101_update
     00064D12  _actor_102_update                  actor_102_update
     00064F36  ___func_scene_0_actors             scene_0_actors
     00064F36  _scene_0_actors                    scene_0_actors
     000651A6  _scene_0_init                      scene_0_init
     00065402  ___func_scene_1_actors             scene_1_actors
     00065402  _scene_1_actors                    scene_1_actors
     00065672  _scene_1_init                      scene_1_init
     000658CE  ___func_scene_10_actors            scene_10_actors
     000658CE  _scene_10_actors                   scene_10_actors
     00065B3E  _scene_10_init                     scene_10_init
     00065DD4  ___func_scene_11_actors            scene_11_actors
     00065DD4  _scene_11_actors                   scene_11_actors
     00066044  _scene_11_init                     scene_11_init
     000662A0  ___func_scene_12_actors            scene_12_actors
     000662A0  _scene_12_actors                   scene_12_actors
     00066510  ___func_scene_5_actors             scene_5_actors
     00066510  _scene_5_actors                    scene_5_actors
     00066780  _scene_5_init                      scene_5_init
     000669DC  ___func_scene_6_actors             scene_6_actors
     000669DC  _scene_6_actors                    scene_6_actors
     00066C4C  _scene_6_init                      scene_6_init
     00066EA8  ___func_scene_7_actors             scene_7_actors
     00066EA8  _scene_7_actors                    scene_7_actors
     00067118  _scene_7_init                      scene_7_init
     00067374  ___func_scene_8_actors             scene_8_actors
     00067374  _scene_8_actors                    scene_8_actors
     000675E4  _scene_8_init                      scene_8_init
     00067840  ___func_scene_9_actors             scene_9_actors
     00067840  _scene_9_actors                    scene_9_actors
     00067AB0  _scene_9_init                      scene_9_init
     00067D07  _script_input_0                    script_input_0
ASxxxx Linker V03.00/V05.40 + sdld,  page 67.
Hexadecimal  [32-Bits]

Area                                    Addr        Size        Decimal Bytes (Attributes)
--------------------------------        ----        ----        ------- ----- ------------
_CODE_6                             00064000    00003FFC =       16380. bytes (REL,CON)

      Value  Global                              Global Defined In Module
      -----  --------------------------------   ------------------------
     00067D49  ___func_sprite_hp_tileset          sprite_hp_tileset
     00067D49  _sprite_hp_tileset                 sprite_hp_tileset
     00067FEB  _logo_init                         logo
     00067FFB  _logo_update                       logo
ASxxxx Linker V03.00/V05.40 + sdld,  page 68.
Hexadecimal  [32-Bits]

Area                                    Addr        Size        Decimal Bytes (Attributes)
--------------------------------        ----        ----        ------- ----- ------------
_HEADER_SIO0                        00000000    00000004 =           4. bytes (ABS,CON)

      Value  Global                              Global Defined In Module
      -----  --------------------------------   ------------------------
ASxxxx Linker V03.00/V05.40 + sdld,  page 69.
Hexadecimal  [32-Bits]

Area                                    Addr        Size        Decimal Bytes (Attributes)
--------------------------------        ----        ----        ------- ----- ------------
_HEADER_TIMER0                      00000000    00000004 =           4. bytes (ABS,CON)

      Value  Global                              Global Defined In Module
      -----  --------------------------------   ------------------------
ASxxxx Linker V03.00/V05.40 + sdld,  page 70.
Hexadecimal  [32-Bits]

Area                                    Addr        Size        Decimal Bytes (Attributes)
--------------------------------        ----        ----        ------- ----- ------------
_CODE_4                             00044000    00003FFF =       16383. bytes (REL,CON)

      Value  Global                              Global Defined In Module
      -----  --------------------------------   ------------------------
     00044000  _projectiles_init                  projectiles
     0004402F  _projectile_launch                 projectiles
     00044446  _set_sgb_border                    sgb_border
     00044630  ___func_VM_GAMEBOY                 vm_gameboy
     00044630  _vm_set_sprites_visible            vm_gameboy
     00044647  _vm_input_wait                     vm_gameboy
     00044670  _vm_context_prepare                vm_gameboy
     0004469B  _vm_input_attach                   vm_gameboy
     000446B1  _vm_input_detach                   vm_gameboy
     000446C5  _vm_input_get                      vm_gameboy
     000446F9  _vm_fade                           vm_gameboy
     00044729  _vm_timer_prepare                  vm_gameboy
     00044754  _vm_timer_set                      vm_gameboy
     0004476F  _vm_timer_stop                     vm_gameboy
     00044783  _vm_timer_reset                    vm_gameboy
     0004479A  _vm_get_tile_xy                    vm_gameboy
     0004483A  _vm_replace_tile                   vm_gameboy
     000448CB  _vm_poll                           vm_gameboy
     0004499D  _vm_set_sprite_mode                vm_gameboy
     000449B1  _vm_replace_tile_xy                vm_gameboy
     00044B19  _vm_rumble                         vm_gameboy
     00044B39  _vm_load_tileset                   vm_gameboy
     00044BA6  ___func_bg_arena1_copy_tilemap     bg_arena1_copy_tilemap
     00044BA6  _bg_arena1_copy_tilemap            bg_arena1_copy_tilemap
     00044FA6  ___func_bg_arena1_tilemap          bg_arena1_tilemap
     00044FA6  _bg_arena1_tilemap                 bg_arena1_tilemap
     000453A6  ___func_bg_arena2_copy_2_tilemap   bg_arena2_copy_2_tilemap
     000453A6  _bg_arena2_copy_2_tilemap          bg_arena2_copy_2_tilemap
     000457A6  ___func_bg_arena2_copy_3_tilemap   bg_arena2_copy_3_tilemap
     000457A6  _bg_arena2_copy_3_tilemap          bg_arena2_copy_3_tilemap
     00045BA6  ___func_bg_arena2_copy_4_tilemap   bg_arena2_copy_4_tilemap
     00045BA6  _bg_arena2_copy_4_tilemap          bg_arena2_copy_4_tilemap
     00045FA6  ___func_bg_arena2_copy_5_tilemap   bg_arena2_copy_5_tilemap
     00045FA6  _bg_arena2_copy_5_tilemap          bg_arena2_copy_5_tilemap
     000463A6  ___func_bg_arena2_copy_6_tilemap   bg_arena2_copy_6_tilemap
     000463A6  _bg_arena2_copy_6_tilemap          bg_arena2_copy_6_tilemap
     000467A6  ___func_bg_arena2_copy_7_tilemap   bg_arena2_copy_7_tilemap
     000467A6  _bg_arena2_copy_7_tilemap          bg_arena2_copy_7_tilemap
     00046BA6  ___func_bg_arena2_copy_8_tilemap   bg_arena2_copy_8_tilemap
     00046BA6  _bg_arena2_copy_8_tilemap          bg_arena2_copy_8_tilemap
     00046FA6  ___func_bg_arena2_copy_tilemap     bg_arena2_copy_tilemap
     00046FA6  _bg_arena2_copy_tilemap            bg_arena2_copy_tilemap
     000473A6  ___func_palette_1                  palette_1
     000473A6  _palette_1                         palette_1
     000473A9  ___func_scene_0_collisions         scene_0_collisions
     000473A9  _scene_0_collisions                scene_0_collisions
     000477A9  ___func_scene_1_collisions         scene_1_collisions
     000477A9  _scene_1_collisions                scene_1_collisions
     00047BA9  _scene_12_init                     scene_12_init

ASxxxx Linker V03.00/V05.40 + sdld,  page 71.
Hexadecimal  [32-Bits]

Area                                    Addr        Size        Decimal Bytes (Attributes)
--------------------------------        ----        ----        ------- ----- ------------
_CODE_7                             00074000    00003FFD =       16381. bytes (REL,CON)

      Value  Global                              Global Defined In Module
      -----  --------------------------------   ------------------------
     00074000  _actor_103_update                  actor_103_update
     00074224  _actor_104_update                  actor_104_update
     00074448  _actor_105_update                  actor_105_update
     0007466C  _actor_106_update                  actor_106_update
     00074890  _actor_107_update                  actor_107_update
     00074AB4  _actor_108_update                  actor_108_update
     00074CD8  _actor_109_update                  actor_109_update
     00074EFC  _actor_110_update                  actor_110_update
     00075120  _actor_111_update                  actor_111_update
     00075344  _actor_112_update                  actor_112_update
     00075568  _actor_113_update                  actor_113_update
     0007578C  _actor_114_update                  actor_114_update
     000759B0  _actor_115_update                  actor_115_update
     00075BD4  _actor_116_update                  actor_116_update
     00075DF8  _actor_117_update                  actor_117_update
     0007601C  _actor_118_update                  actor_118_update
     00076240  _actor_119_update                  actor_119_update
     00076464  _actor_17_update                   actor_17_update
     00076688  _actor_18_update                   actor_18_update
     000768AC  _actor_19_update                   actor_19_update
     00076AD0  _actor_24_update                   actor_24_update
     00076CF4  _actor_28_update                   actor_28_update
     00076F18  _actor_29_update                   actor_29_update
     0007713C  _actor_3_update                    actor_3_update
     00077360  _actor_30_update                   actor_30_update
     00077584  _actor_32_update                   actor_32_update
     000777A8  _actor_33_update                   actor_33_update
     000779CC  _actor_34_update                   actor_34_update
     00077BF0  _actor_35_update                   actor_35_update
     00077E14  ___func_bg_logo_tilemap            bg_logo_tilemap
     00077E14  _bg_logo_tilemap                   bg_logo_tilemap
     00077F7C  _scene_0_p_hit1                    scene_0_p_hit1

ASxxxx Linker V03.00/V05.40 + sdld,  page 72.
Hexadecimal  [32-Bits]

Area                                    Addr        Size        Decimal Bytes (Attributes)
--------------------------------        ----        ----        ------- ----- ------------
_CODE_8                             00084000    00003FFD =       16381. bytes (REL,CON)

      Value  Global                              Global Defined In Module
      -----  --------------------------------   ------------------------
     00084000  _actor_36_update                   actor_36_update
     00084224  _actor_37_update                   actor_37_update
     00084448  _actor_38_update                   actor_38_update
     0008466C  _actor_39_update                   actor_39_update
     00084890  _actor_40_update                   actor_40_update
     00084AB4  _actor_41_update                   actor_41_update
     00084CD8  _actor_42_update                   actor_42_update
     00084EFC  _actor_43_update                   actor_43_update
     00085120  _actor_44_update                   actor_44_update
     00085344  _actor_45_update                   actor_45_update
     00085568  _actor_46_update                   actor_46_update
     0008578C  _actor_47_update                   actor_47_update
     000859B0  _actor_48_update                   actor_48_update
     00085BD4  _actor_49_update                   actor_49_update
     00085DF8  _actor_50_update                   actor_50_update
     0008601C  _actor_51_update                   actor_51_update
     00086240  _actor_52_update                   actor_52_update
     00086464  _actor_53_update                   actor_53_update
     00086688  _actor_54_update                   actor_54_update
     000868AC  _actor_55_update                   actor_55_update
     00086AD0  _actor_56_update                   actor_56_update
     00086CF4  _actor_57_update                   actor_57_update
     00086F18  _actor_58_update                   actor_58_update
     0008713C  _actor_59_update                   actor_59_update
     00087360  _actor_6_update                    actor_6_update
     00087584  _actor_60_update                   actor_60_update
     000877A8  _actor_61_update                   actor_61_update
     000879CC  _actor_62_update                   actor_62_update
     00087BF0  _actor_63_update                   actor_63_update
     00087E14  ___func_bg_loser_tilemap           bg_loser_tilemap
     00087E14  _bg_loser_tilemap                  bg_loser_tilemap
     00087F7C  _scene_1_p_hit1                    scene_1_p_hit1

ASxxxx Linker V03.00/V05.40 + sdld,  page 73.
Hexadecimal  [32-Bits]

Area                                    Addr        Size        Decimal Bytes (Attributes)
--------------------------------        ----        ----        ------- ----- ------------
_CODE_9                             00094000    00003FFD =       16381. bytes (REL,CON)

      Value  Global                              Global Defined In Module
      -----  --------------------------------   ------------------------
     00094000  _actor_64_update                   actor_64_update
     00094224  _actor_65_update                   actor_65_update
     00094448  _actor_66_update                   actor_66_update
     0009466C  _actor_67_update                   actor_67_update
     00094890  _actor_68_update                   actor_68_update
     00094AB4  _actor_69_update                   actor_69_update
     00094CD8  _actor_70_update                   actor_70_update
     00094EFC  _actor_71_update                   actor_71_update
     00095120  _actor_72_update                   actor_72_update
     00095344  _actor_73_update                   actor_73_update
     00095568  _actor_74_update                   actor_74_update
     0009578C  _actor_75_update                   actor_75_update
     000959B0  _actor_76_update                   actor_76_update
     00095BD4  _actor_77_update                   actor_77_update
     00095DF8  _actor_78_update                   actor_78_update
     0009601C  _actor_79_update                   actor_79_update
     00096240  _actor_80_update                   actor_80_update
     00096464  _actor_81_update                   actor_81_update
     00096688  _actor_82_update                   actor_82_update
     000968AC  _actor_83_update                   actor_83_update
     00096AD0  _actor_84_update                   actor_84_update
     00096CF4  _actor_85_update                   actor_85_update
     00096F18  _actor_86_update                   actor_86_update
     0009713C  _actor_87_update                   actor_87_update
     00097360  _actor_88_update                   actor_88_update
     00097584  _actor_89_update                   actor_89_update
     000977A8  _actor_9_update                    actor_9_update
     000979CC  _actor_90_update                   actor_90_update
     00097BF0  _actor_91_update                   actor_91_update
     00097E14  ___func_bg_titlescreen_tilemap     bg_titlescreen_tilemap
     00097E14  _bg_titlescreen_tilemap            bg_titlescreen_tilemap
     00097F7C  _scene_11_p_hit1                   scene_11_p_hit1

ASxxxx Linker V03.00/V05.40 + sdld,  page 74.
Hexadecimal  [32-Bits]

Area                                    Addr        Size        Decimal Bytes (Attributes)
--------------------------------        ----        ----        ------- ----- ------------
_HEADER_LCD0                        00000000    00000003 =           3. bytes (ABS,CON)

      Value  Global                              Global Defined In Module
      -----  --------------------------------   ------------------------
ASxxxx Linker V03.00/V05.40 + sdld,  page 75.

Files Linked                              [ module(s) ]

/var/folders/rp/v77995xj4p741ysvqsgxjmnm0000gn/T/_gbstools/gbdk/lib/gb/crt0.o
                                          [ Runtime ]
/var/folders/rp/v77995xj4p741ysvqsgxjmnm0000gn/T/_gbsbuild/obj/absolute.rel
                                          [ absolute ]
/var/folders/rp/v77995xj4p741ysvqsgxjmnm0000gn/T/_gbsbuild/obj/actor.rel
                                          [ actor ]
/var/folders/rp/v77995xj4p741ysvqsgxjmnm0000gn/T/_gbsbuild/obj/bankdata.rel
                                          [ bankdata ]
/var/folders/rp/v77995xj4p741ysvqsgxjmnm0000gn/T/_gbsbuild/obj/bootstrap.rel
                                          [  ]
/var/folders/rp/v77995xj4p741ysvqsgxjmnm0000gn/T/_gbsbuild/obj/camera.rel
                                          [ camera ]
/var/folders/rp/v77995xj4p741ysvqsgxjmnm0000gn/T/_gbsbuild/obj/core.rel
                                          [ core ]
/var/folders/rp/v77995xj4p741ysvqsgxjmnm0000gn/T/_gbsbuild/obj/crash_handler.rel
                                          [  ]
/var/folders/rp/v77995xj4p741ysvqsgxjmnm0000gn/T/_gbsbuild/obj/data_manager.rel
                                          [ data_manager ]
/var/folders/rp/v77995xj4p741ysvqsgxjmnm0000gn/T/_gbsbuild/obj/events.rel
                                          [ events ]
/var/folders/rp/v77995xj4p741ysvqsgxjmnm0000gn/T/_gbsbuild/obj/fade_manager.rel
                                          [ fade_manager ]
/var/folders/rp/v77995xj4p741ysvqsgxjmnm0000gn/T/_gbsbuild/obj/flasher_s.rel
                                          [  ]
/var/folders/rp/v77995xj4p741ysvqsgxjmnm0000gn/T/_gbsbuild/obj/flasher.rel
                                          [ flasher ]
/var/folders/rp/v77995xj4p741ysvqsgxjmnm0000gn/T/_gbsbuild/obj/game_time.rel
                                          [ game_time ]
/var/folders/rp/v77995xj4p741ysvqsgxjmnm0000gn/T/_gbsbuild/obj/gbprinter.rel
                                          [ gbprinter ]
/var/folders/rp/v77995xj4p741ysvqsgxjmnm0000gn/T/_gbsbuild/obj/input.rel
                                          [ input ]
/var/folders/rp/v77995xj4p741ysvqsgxjmnm0000gn/T/_gbsbuild/obj/interrupt_sio.rel
                                          [  ]
/var/folders/rp/v77995xj4p741ysvqsgxjmnm0000gn/T/_gbsbuild/obj/interrupt_timer.rel
                                          [  ]
/var/folders/rp/v77995xj4p741ysvqsgxjmnm0000gn/T/_gbsbuild/obj/interrupts.rel
                                          [ interrupts ]
/var/folders/rp/v77995xj4p741ysvqsgxjmnm0000gn/T/_gbsbuild/obj/load_save.rel
                                          [ load_save ]
/var/folders/rp/v77995xj4p741ysvqsgxjmnm0000gn/T/_gbsbuild/obj/math_atan2.rel
                                          [ math_atan2 ]
/var/folders/rp/v77995xj4p741ysvqsgxjmnm0000gn/T/_gbsbuild/obj/math.rel
                                          [ math ]
/var/folders/rp/v77995xj4p741ysvqsgxjmnm0000gn/T/_gbsbuild/obj/music_manager.rel
                                          [ music_manager ]
/var/folders/rp/v77995xj4p741ysvqsgxjmnm0000gn/T/_gbsbuild/obj/palette.rel
                                          [ palette ]
/var/folders/rp/v77995xj4p741ysvqsgxjmnm0000gn/T/_gbsbuild/obj/parallax.rel
                                          [ parallax ]
/var/folders/rp/v77995xj4p741ysvqsgxjmnm0000gn/T/_gbsbuild/obj/projectiles.rel
                                          [ projectiles ]
/var/folders/rp/v77995xj4p741ysvqsgxjmnm0000gn/T/_gbsbuild/obj/scroll_a.rel
                                          [  ]
/var/folders/rp/v77995xj4p741ysvqsgxjmnm0000gn/T/_gbsbuild/obj/scroll.rel
                                          [ scroll ]
/var/folders/rp/v77995xj4p741ysvqsgxjmnm0000gn/T/_gbsbuild/obj/set_tile_submap.rel
                                          [  ]
/var/folders/rp/v77995xj4p741ysvqsgxjmnm0000gn/T/_gbsbuild/obj/sfx_player.rel
                                          [ sfx_player ]
/var/folders/rp/v77995xj4p741ysvqsgxjmnm0000gn/T/_gbsbuild/obj/sgb_border.rel
                                          [ sgb_border ]
/var/folders/rp/v77995xj4p741ysvqsgxjmnm0000gn/T/_gbsbuild/obj/sio.rel
                                          [ sio ]
/var/folders/rp/v77995xj4p741ysvqsgxjmnm0000gn/T/_gbsbuild/obj/states_caller.rel
                                          [  ]
/var/folders/rp/v77995xj4p741ysvqsgxjmnm0000gn/T/_gbsbuild/obj/system.rel
                                          [ system ]
/var/folders/rp/v77995xj4p741ysvqsgxjmnm0000gn/T/_gbsbuild/obj/trigger.rel
                                          [ trigger ]
/var/folders/rp/v77995xj4p741ysvqsgxjmnm0000gn/T/_gbsbuild/obj/ui_a.rel
                                          [  ]
/var/folders/rp/v77995xj4p741ysvqsgxjmnm0000gn/T/_gbsbuild/obj/ui.rel
                                          [ ui ]
/var/folders/rp/v77995xj4p741ysvqsgxjmnm0000gn/T/_gbsbuild/obj/vm_actor.rel
                                          [ vm_actor ]
/var/folders/rp/v77995xj4p741ysvqsgxjmnm0000gn/T/_gbsbuild/obj/vm_camera.rel
                                          [ vm_camera ]
/var/folders/rp/v77995xj4p741ysvqsgxjmnm0000gn/T/_gbsbuild/obj/vm_gameboy.rel
                                          [ vm_gameboy ]
/var/folders/rp/v77995xj4p741ysvqsgxjmnm0000gn/T/_gbsbuild/obj/vm_gbprinter.rel
                                          [ vm_gbprinter ]
/var/folders/rp/v77995xj4p741ysvqsgxjmnm0000gn/T/_gbsbuild/obj/vm_instructions.rel
                                          [ vm_instructions ]
/var/folders/rp/v77995xj4p741ysvqsgxjmnm0000gn/T/_gbsbuild/obj/vm_load_save.rel
                                          [ vm_load_save ]
/var/folders/rp/v77995xj4p741ysvqsgxjmnm0000gn/T/_gbsbuild/obj/vm_math.rel
                                          [ vm_math ]
/var/folders/rp/v77995xj4p741ysvqsgxjmnm0000gn/T/_gbsbuild/obj/vm_music.rel
                                          [ vm_music ]
/var/folders/rp/v77995xj4p741ysvqsgxjmnm0000gn/T/_gbsbuild/obj/vm_palette.rel
                                          [ vm_palette ]
/var/folders/rp/v77995xj4p741ysvqsgxjmnm0000gn/T/_gbsbuild/obj/vm_projectiles.rel
                                          [ vm_projectiles ]
/var/folders/rp/v77995xj4p741ysvqsgxjmnm0000gn/T/_gbsbuild/obj/vm_rtc.rel
                                          [ vm_rtc ]
/var/folders/rp/v77995xj4p741ysvqsgxjmnm0000gn/T/_gbsbuild/obj/vm_scene.rel
                                          [ vm_scene ]
/var/folders/rp/v77995xj4p741ysvqsgxjmnm0000gn/T/_gbsbuild/obj/vm_sgb.rel
                                          [ vm_sgb ]
/var/folders/rp/v77995xj4p741ysvqsgxjmnm0000gn/T/_gbsbuild/obj/vm_sio.rel
                                          [ vm_sio ]
/var/folders/rp/v77995xj4p741ysvqsgxjmnm0000gn/T/_gbsbuild/obj/vm_ui_a.rel
                                          [ vm_ui_a ]
/var/folders/rp/v77995xj4p741ysvqsgxjmnm0000gn/T/_gbsbuild/obj/vm_ui.rel
                                          [ vm_ui ]
/var/folders/rp/v77995xj4p741ysvqsgxjmnm0000gn/T/_gbsbuild/obj/vm.rel
                                          [ vm ]
/var/folders/rp/v77995xj4p741ysvqsgxjmnm0000gn/T/_gbsbuild/obj/actor_0_interact.rel
                                          [ actor_0_interact ]
/var/folders/rp/v77995xj4p741ysvqsgxjmnm0000gn/T/_gbsbuild/obj/actor_0_update.rel
                                          [ actor_0_update ]
/var/folders/rp/v77995xj4p741ysvqsgxjmnm0000gn/T/_gbsbuild/obj/actor_10_interact.rel
                                          [ actor_10_interact ]
/var/folders/rp/v77995xj4p741ysvqsgxjmnm0000gn/T/_gbsbuild/obj/actor_10_update.rel
                                          [ actor_10_update ]
/var/folders/rp/v77995xj4p741ysvqsgxjmnm0000gn/T/_gbsbuild/obj/actor_100_interact.rel
                                          [ actor_100_interact ]
/var/folders/rp/v77995xj4p741ysvqsgxjmnm0000gn/T/_gbsbuild/obj/actor_100_update.rel
                                          [ actor_100_update ]
/var/folders/rp/v77995xj4p741ysvqsgxjmnm0000gn/T/_gbsbuild/obj/actor_101_interact.rel
                                          [ actor_101_interact ]
/var/folders/rp/v77995xj4p741ysvqsgxjmnm0000gn/T/_gbsbuild/obj/actor_101_update.rel
                                          [ actor_101_update ]
/var/folders/rp/v77995xj4p741ysvqsgxjmnm0000gn/T/_gbsbuild/obj/actor_102_interact.rel
                                          [ actor_102_interact ]
/var/folders/rp/v77995xj4p741ysvqsgxjmnm0000gn/T/_gbsbuild/obj/actor_102_update.rel
                                          [ actor_102_update ]
/var/folders/rp/v77995xj4p741ysvqsgxjmnm0000gn/T/_gbsbuild/obj/actor_103_interact.rel
                                          [ actor_103_interact ]
/var/folders/rp/v77995xj4p741ysvqsgxjmnm0000gn/T/_gbsbuild/obj/actor_103_update.rel
                                          [ actor_103_update ]
/var/folders/rp/v77995xj4p741ysvqsgxjmnm0000gn/T/_gbsbuild/obj/actor_104_interact.rel
                                          [ actor_104_interact ]
/var/folders/rp/v77995xj4p741ysvqsgxjmnm0000gn/T/_gbsbuild/obj/actor_104_update.rel
                                          [ actor_104_update ]
/var/folders/rp/v77995xj4p741ysvqsgxjmnm0000gn/T/_gbsbuild/obj/actor_105_interact.rel
                                          [ actor_105_interact ]
/var/folders/rp/v77995xj4p741ysvqsgxjmnm0000gn/T/_gbsbuild/obj/actor_105_update.rel
                                          [ actor_105_update ]
/var/folders/rp/v77995xj4p741ysvqsgxjmnm0000gn/T/_gbsbuild/obj/actor_106_interact.rel
                                          [ actor_106_interact ]
/var/folders/rp/v77995xj4p741ysvqsgxjmnm0000gn/T/_gbsbuild/obj/actor_106_update.rel
                                          [ actor_106_update ]
/var/folders/rp/v77995xj4p741ysvqsgxjmnm0000gn/T/_gbsbuild/obj/actor_107_interact.rel
                                          [ actor_107_interact ]
/var/folders/rp/v77995xj4p741ysvqsgxjmnm0000gn/T/_gbsbuild/obj/actor_107_update.rel
                                          [ actor_107_update ]
/var/folders/rp/v77995xj4p741ysvqsgxjmnm0000gn/T/_gbsbuild/obj/actor_108_interact.rel
                                          [ actor_108_interact ]
/var/folders/rp/v77995xj4p741ysvqsgxjmnm0000gn/T/_gbsbuild/obj/actor_108_update.rel
                                          [ actor_108_update ]
/var/folders/rp/v77995xj4p741ysvqsgxjmnm0000gn/T/_gbsbuild/obj/actor_109_interact.rel
                                          [ actor_109_interact ]
/var/folders/rp/v77995xj4p741ysvqsgxjmnm0000gn/T/_gbsbuild/obj/actor_109_update.rel
                                          [ actor_109_update ]
/var/folders/rp/v77995xj4p741ysvqsgxjmnm0000gn/T/_gbsbuild/obj/actor_110_interact.rel
                                          [ actor_110_interact ]
/var/folders/rp/v77995xj4p741ysvqsgxjmnm0000gn/T/_gbsbuild/obj/actor_110_update.rel
                                          [ actor_110_update ]
/var/folders/rp/v77995xj4p741ysvqsgxjmnm0000gn/T/_gbsbuild/obj/actor_111_interact.rel
                                          [ actor_111_interact ]
/var/folders/rp/v77995xj4p741ysvqsgxjmnm0000gn/T/_gbsbuild/obj/actor_111_update.rel
                                          [ actor_111_update ]
/var/folders/rp/v77995xj4p741ysvqsgxjmnm0000gn/T/_gbsbuild/obj/actor_112_interact.rel
                                          [ actor_112_interact ]
/var/folders/rp/v77995xj4p741ysvqsgxjmnm0000gn/T/_gbsbuild/obj/actor_112_update.rel
                                          [ actor_112_update ]
/var/folders/rp/v77995xj4p741ysvqsgxjmnm0000gn/T/_gbsbuild/obj/actor_113_interact.rel
                                          [ actor_113_interact ]
/var/folders/rp/v77995xj4p741ysvqsgxjmnm0000gn/T/_gbsbuild/obj/actor_113_update.rel
                                          [ actor_113_update ]
/var/folders/rp/v77995xj4p741ysvqsgxjmnm0000gn/T/_gbsbuild/obj/actor_114_interact.rel
                                          [ actor_114_interact ]
/var/folders/rp/v77995xj4p741ysvqsgxjmnm0000gn/T/_gbsbuild/obj/actor_114_update.rel
                                          [ actor_114_update ]
/var/folders/rp/v77995xj4p741ysvqsgxjmnm0000gn/T/_gbsbuild/obj/actor_115_interact.rel
                                          [ actor_115_interact ]
/var/folders/rp/v77995xj4p741ysvqsgxjmnm0000gn/T/_gbsbuild/obj/actor_115_update.rel
                                          [ actor_115_update ]
/var/folders/rp/v77995xj4p741ysvqsgxjmnm0000gn/T/_gbsbuild/obj/actor_116_interact.rel
                                          [ actor_116_interact ]
/var/folders/rp/v77995xj4p741ysvqsgxjmnm0000gn/T/_gbsbuild/obj/actor_116_update.rel
                                          [ actor_116_update ]
/var/folders/rp/v77995xj4p741ysvqsgxjmnm0000gn/T/_gbsbuild/obj/actor_117_interact.rel
                                          [ actor_117_interact ]
/var/folders/rp/v77995xj4p741ysvqsgxjmnm0000gn/T/_gbsbuild/obj/actor_117_update.rel
                                          [ actor_117_update ]
/var/folders/rp/v77995xj4p741ysvqsgxjmnm0000gn/T/_gbsbuild/obj/actor_118_interact.rel
                                          [ actor_118_interact ]
/var/folders/rp/v77995xj4p741ysvqsgxjmnm0000gn/T/_gbsbuild/obj/actor_118_update.rel
                                          [ actor_118_update ]
/var/folders/rp/v77995xj4p741ysvqsgxjmnm0000gn/T/_gbsbuild/obj/actor_119_interact.rel
                                          [ actor_119_interact ]
/var/folders/rp/v77995xj4p741ysvqsgxjmnm0000gn/T/_gbsbuild/obj/actor_119_update.rel
                                          [ actor_119_update ]
/var/folders/rp/v77995xj4p741ysvqsgxjmnm0000gn/T/_gbsbuild/obj/actor_12_update.rel
                                          [ actor_12_update ]
/var/folders/rp/v77995xj4p741ysvqsgxjmnm0000gn/T/_gbsbuild/obj/actor_15_update.rel
                                          [ actor_15_update ]
/var/folders/rp/v77995xj4p741ysvqsgxjmnm0000gn/T/_gbsbuild/obj/actor_16_update.rel
                                          [ actor_16_update ]
/var/folders/rp/v77995xj4p741ysvqsgxjmnm0000gn/T/_gbsbuild/obj/actor_17_interact.rel
                                          [ actor_17_interact ]
/var/folders/rp/v77995xj4p741ysvqsgxjmnm0000gn/T/_gbsbuild/obj/actor_17_update.rel
                                          [ actor_17_update ]
/var/folders/rp/v77995xj4p741ysvqsgxjmnm0000gn/T/_gbsbuild/obj/actor_18_interact.rel
                                          [ actor_18_interact ]
/var/folders/rp/v77995xj4p741ysvqsgxjmnm0000gn/T/_gbsbuild/obj/actor_18_update.rel
                                          [ actor_18_update ]
/var/folders/rp/v77995xj4p741ysvqsgxjmnm0000gn/T/_gbsbuild/obj/actor_19_interact.rel
                                          [ actor_19_interact ]
/var/folders/rp/v77995xj4p741ysvqsgxjmnm0000gn/T/_gbsbuild/obj/actor_19_update.rel
                                          [ actor_19_update ]
/var/folders/rp/v77995xj4p741ysvqsgxjmnm0000gn/T/_gbsbuild/obj/actor_2_update.rel
                                          [ actor_2_update ]
/var/folders/rp/v77995xj4p741ysvqsgxjmnm0000gn/T/_gbsbuild/obj/actor_22_update.rel
                                          [ actor_22_update ]
/var/folders/rp/v77995xj4p741ysvqsgxjmnm0000gn/T/_gbsbuild/obj/actor_23_update.rel
                                          [ actor_23_update ]
/var/folders/rp/v77995xj4p741ysvqsgxjmnm0000gn/T/_gbsbuild/obj/actor_24_interact.rel
                                          [ actor_24_interact ]
/var/folders/rp/v77995xj4p741ysvqsgxjmnm0000gn/T/_gbsbuild/obj/actor_24_update.rel
                                          [ actor_24_update ]
/var/folders/rp/v77995xj4p741ysvqsgxjmnm0000gn/T/_gbsbuild/obj/actor_26_update.rel
                                          [ actor_26_update ]
/var/folders/rp/v77995xj4p741ysvqsgxjmnm0000gn/T/_gbsbuild/obj/actor_28_interact.rel
                                          [ actor_28_interact ]
/var/folders/rp/v77995xj4p741ysvqsgxjmnm0000gn/T/_gbsbuild/obj/actor_28_update.rel
                                          [ actor_28_update ]
/var/folders/rp/v77995xj4p741ysvqsgxjmnm0000gn/T/_gbsbuild/obj/actor_29_interact.rel
                                          [ actor_29_interact ]
/var/folders/rp/v77995xj4p741ysvqsgxjmnm0000gn/T/_gbsbuild/obj/actor_29_update.rel
                                          [ actor_29_update ]
/var/folders/rp/v77995xj4p741ysvqsgxjmnm0000gn/T/_gbsbuild/obj/actor_3_interact.rel
                                          [ actor_3_interact ]
/var/folders/rp/v77995xj4p741ysvqsgxjmnm0000gn/T/_gbsbuild/obj/actor_3_update.rel
                                          [ actor_3_update ]
/var/folders/rp/v77995xj4p741ysvqsgxjmnm0000gn/T/_gbsbuild/obj/actor_30_interact.rel
                                          [ actor_30_interact ]
/var/folders/rp/v77995xj4p741ysvqsgxjmnm0000gn/T/_gbsbuild/obj/actor_30_update.rel
                                          [ actor_30_update ]
/var/folders/rp/v77995xj4p741ysvqsgxjmnm0000gn/T/_gbsbuild/obj/actor_31_update.rel
                                          [ actor_31_update ]
/var/folders/rp/v77995xj4p741ysvqsgxjmnm0000gn/T/_gbsbuild/obj/actor_32_interact.rel
                                          [ actor_32_interact ]
/var/folders/rp/v77995xj4p741ysvqsgxjmnm0000gn/T/_gbsbuild/obj/actor_32_update.rel
                                          [ actor_32_update ]
/var/folders/rp/v77995xj4p741ysvqsgxjmnm0000gn/T/_gbsbuild/obj/actor_33_interact.rel
                                          [ actor_33_interact ]
/var/folders/rp/v77995xj4p741ysvqsgxjmnm0000gn/T/_gbsbuild/obj/actor_33_update.rel
                                          [ actor_33_update ]
/var/folders/rp/v77995xj4p741ysvqsgxjmnm0000gn/T/_gbsbuild/obj/actor_34_interact.rel
                                          [ actor_34_interact ]
/var/folders/rp/v77995xj4p741ysvqsgxjmnm0000gn/T/_gbsbuild/obj/actor_34_update.rel
                                          [ actor_34_update ]
/var/folders/rp/v77995xj4p741ysvqsgxjmnm0000gn/T/_gbsbuild/obj/actor_35_interact.rel
                                          [ actor_35_interact ]
/var/folders/rp/v77995xj4p741ysvqsgxjmnm0000gn/T/_gbsbuild/obj/actor_35_update.rel
                                          [ actor_35_update ]
/var/folders/rp/v77995xj4p741ysvqsgxjmnm0000gn/T/_gbsbuild/obj/actor_36_interact.rel
                                          [ actor_36_interact ]
/var/folders/rp/v77995xj4p741ysvqsgxjmnm0000gn/T/_gbsbuild/obj/actor_36_update.rel
                                          [ actor_36_update ]
/var/folders/rp/v77995xj4p741ysvqsgxjmnm0000gn/T/_gbsbuild/obj/actor_37_interact.rel
                                          [ actor_37_interact ]
/var/folders/rp/v77995xj4p741ysvqsgxjmnm0000gn/T/_gbsbuild/obj/actor_37_update.rel
                                          [ actor_37_update ]
/var/folders/rp/v77995xj4p741ysvqsgxjmnm0000gn/T/_gbsbuild/obj/actor_38_interact.rel
                                          [ actor_38_interact ]
/var/folders/rp/v77995xj4p741ysvqsgxjmnm0000gn/T/_gbsbuild/obj/actor_38_update.rel
                                          [ actor_38_update ]
/var/folders/rp/v77995xj4p741ysvqsgxjmnm0000gn/T/_gbsbuild/obj/actor_39_interact.rel
                                          [ actor_39_interact ]
/var/folders/rp/v77995xj4p741ysvqsgxjmnm0000gn/T/_gbsbuild/obj/actor_39_update.rel
                                          [ actor_39_update ]
/var/folders/rp/v77995xj4p741ysvqsgxjmnm0000gn/T/_gbsbuild/obj/actor_40_interact.rel
                                          [ actor_40_interact ]
/var/folders/rp/v77995xj4p741ysvqsgxjmnm0000gn/T/_gbsbuild/obj/actor_40_update.rel
                                          [ actor_40_update ]
/var/folders/rp/v77995xj4p741ysvqsgxjmnm0000gn/T/_gbsbuild/obj/actor_41_interact.rel
                                          [ actor_41_interact ]
/var/folders/rp/v77995xj4p741ysvqsgxjmnm0000gn/T/_gbsbuild/obj/actor_41_update.rel
                                          [ actor_41_update ]
/var/folders/rp/v77995xj4p741ysvqsgxjmnm0000gn/T/_gbsbuild/obj/actor_42_interact.rel
                                          [ actor_42_interact ]
/var/folders/rp/v77995xj4p741ysvqsgxjmnm0000gn/T/_gbsbuild/obj/actor_42_update.rel
                                          [ actor_42_update ]
/var/folders/rp/v77995xj4p741ysvqsgxjmnm0000gn/T/_gbsbuild/obj/actor_43_interact.rel
                                          [ actor_43_interact ]
/var/folders/rp/v77995xj4p741ysvqsgxjmnm0000gn/T/_gbsbuild/obj/actor_43_update.rel
                                          [ actor_43_update ]
/var/folders/rp/v77995xj4p741ysvqsgxjmnm0000gn/T/_gbsbuild/obj/actor_44_interact.rel
                                          [ actor_44_interact ]
/var/folders/rp/v77995xj4p741ysvqsgxjmnm0000gn/T/_gbsbuild/obj/actor_44_update.rel
                                          [ actor_44_update ]
/var/folders/rp/v77995xj4p741ysvqsgxjmnm0000gn/T/_gbsbuild/obj/actor_45_interact.rel
                                          [ actor_45_interact ]
/var/folders/rp/v77995xj4p741ysvqsgxjmnm0000gn/T/_gbsbuild/obj/actor_45_update.rel
                                          [ actor_45_update ]
/var/folders/rp/v77995xj4p741ysvqsgxjmnm0000gn/T/_gbsbuild/obj/actor_46_interact.rel
                                          [ actor_46_interact ]
/var/folders/rp/v77995xj4p741ysvqsgxjmnm0000gn/T/_gbsbuild/obj/actor_46_update.rel
                                          [ actor_46_update ]
/var/folders/rp/v77995xj4p741ysvqsgxjmnm0000gn/T/_gbsbuild/obj/actor_47_interact.rel
                                          [ actor_47_interact ]
/var/folders/rp/v77995xj4p741ysvqsgxjmnm0000gn/T/_gbsbuild/obj/actor_47_update.rel
                                          [ actor_47_update ]
/var/folders/rp/v77995xj4p741ysvqsgxjmnm0000gn/T/_gbsbuild/obj/actor_48_interact.rel
                                          [ actor_48_interact ]
/var/folders/rp/v77995xj4p741ysvqsgxjmnm0000gn/T/_gbsbuild/obj/actor_48_update.rel
                                          [ actor_48_update ]
/var/folders/rp/v77995xj4p741ysvqsgxjmnm0000gn/T/_gbsbuild/obj/actor_49_interact.rel
                                          [ actor_49_interact ]
/var/folders/rp/v77995xj4p741ysvqsgxjmnm0000gn/T/_gbsbuild/obj/actor_49_update.rel
                                          [ actor_49_update ]
/var/folders/rp/v77995xj4p741ysvqsgxjmnm0000gn/T/_gbsbuild/obj/actor_5_update.rel
                                          [ actor_5_update ]
/var/folders/rp/v77995xj4p741ysvqsgxjmnm0000gn/T/_gbsbuild/obj/actor_50_interact.rel
                                          [ actor_50_interact ]
/var/folders/rp/v77995xj4p741ysvqsgxjmnm0000gn/T/_gbsbuild/obj/actor_50_update.rel
                                          [ actor_50_update ]
/var/folders/rp/v77995xj4p741ysvqsgxjmnm0000gn/T/_gbsbuild/obj/actor_51_interact.rel
                                          [ actor_51_interact ]
/var/folders/rp/v77995xj4p741ysvqsgxjmnm0000gn/T/_gbsbuild/obj/actor_51_update.rel
                                          [ actor_51_update ]
/var/folders/rp/v77995xj4p741ysvqsgxjmnm0000gn/T/_gbsbuild/obj/actor_52_interact.rel
                                          [ actor_52_interact ]
/var/folders/rp/v77995xj4p741ysvqsgxjmnm0000gn/T/_gbsbuild/obj/actor_52_update.rel
                                          [ actor_52_update ]
/var/folders/rp/v77995xj4p741ysvqsgxjmnm0000gn/T/_gbsbuild/obj/actor_53_interact.rel
                                          [ actor_53_interact ]
/var/folders/rp/v77995xj4p741ysvqsgxjmnm0000gn/T/_gbsbuild/obj/actor_53_update.rel
                                          [ actor_53_update ]
/var/folders/rp/v77995xj4p741ysvqsgxjmnm0000gn/T/_gbsbuild/obj/actor_54_interact.rel
                                          [ actor_54_interact ]
/var/folders/rp/v77995xj4p741ysvqsgxjmnm0000gn/T/_gbsbuild/obj/actor_54_update.rel
                                          [ actor_54_update ]
/var/folders/rp/v77995xj4p741ysvqsgxjmnm0000gn/T/_gbsbuild/obj/actor_55_interact.rel
                                          [ actor_55_interact ]
/var/folders/rp/v77995xj4p741ysvqsgxjmnm0000gn/T/_gbsbuild/obj/actor_55_update.rel
                                          [ actor_55_update ]
/var/folders/rp/v77995xj4p741ysvqsgxjmnm0000gn/T/_gbsbuild/obj/actor_56_interact.rel
                                          [ actor_56_interact ]
/var/folders/rp/v77995xj4p741ysvqsgxjmnm0000gn/T/_gbsbuild/obj/actor_56_update.rel
                                          [ actor_56_update ]
/var/folders/rp/v77995xj4p741ysvqsgxjmnm0000gn/T/_gbsbuild/obj/actor_57_interact.rel
                                          [ actor_57_interact ]
/var/folders/rp/v77995xj4p741ysvqsgxjmnm0000gn/T/_gbsbuild/obj/actor_57_update.rel
                                          [ actor_57_update ]
/var/folders/rp/v77995xj4p741ysvqsgxjmnm0000gn/T/_gbsbuild/obj/actor_58_interact.rel
                                          [ actor_58_interact ]
/var/folders/rp/v77995xj4p741ysvqsgxjmnm0000gn/T/_gbsbuild/obj/actor_58_update.rel
                                          [ actor_58_update ]
/var/folders/rp/v77995xj4p741ysvqsgxjmnm0000gn/T/_gbsbuild/obj/actor_59_interact.rel
                                          [ actor_59_interact ]
/var/folders/rp/v77995xj4p741ysvqsgxjmnm0000gn/T/_gbsbuild/obj/actor_59_update.rel
                                          [ actor_59_update ]
/var/folders/rp/v77995xj4p741ysvqsgxjmnm0000gn/T/_gbsbuild/obj/actor_6_interact.rel
                                          [ actor_6_interact ]
/var/folders/rp/v77995xj4p741ysvqsgxjmnm0000gn/T/_gbsbuild/obj/actor_6_update.rel
                                          [ actor_6_update ]
/var/folders/rp/v77995xj4p741ysvqsgxjmnm0000gn/T/_gbsbuild/obj/actor_60_interact.rel
                                          [ actor_60_interact ]
/var/folders/rp/v77995xj4p741ysvqsgxjmnm0000gn/T/_gbsbuild/obj/actor_60_update.rel
                                          [ actor_60_update ]
/var/folders/rp/v77995xj4p741ysvqsgxjmnm0000gn/T/_gbsbuild/obj/actor_61_interact.rel
                                          [ actor_61_interact ]
/var/folders/rp/v77995xj4p741ysvqsgxjmnm0000gn/T/_gbsbuild/obj/actor_61_update.rel
                                          [ actor_61_update ]
/var/folders/rp/v77995xj4p741ysvqsgxjmnm0000gn/T/_gbsbuild/obj/actor_62_interact.rel
                                          [ actor_62_interact ]
/var/folders/rp/v77995xj4p741ysvqsgxjmnm0000gn/T/_gbsbuild/obj/actor_62_update.rel
                                          [ actor_62_update ]
/var/folders/rp/v77995xj4p741ysvqsgxjmnm0000gn/T/_gbsbuild/obj/actor_63_interact.rel
                                          [ actor_63_interact ]
/var/folders/rp/v77995xj4p741ysvqsgxjmnm0000gn/T/_gbsbuild/obj/actor_63_update.rel
                                          [ actor_63_update ]
/var/folders/rp/v77995xj4p741ysvqsgxjmnm0000gn/T/_gbsbuild/obj/actor_64_interact.rel
                                          [ actor_64_interact ]
/var/folders/rp/v77995xj4p741ysvqsgxjmnm0000gn/T/_gbsbuild/obj/actor_64_update.rel
                                          [ actor_64_update ]
/var/folders/rp/v77995xj4p741ysvqsgxjmnm0000gn/T/_gbsbuild/obj/actor_65_interact.rel
                                          [ actor_65_interact ]
/var/folders/rp/v77995xj4p741ysvqsgxjmnm0000gn/T/_gbsbuild/obj/actor_65_update.rel
                                          [ actor_65_update ]
/var/folders/rp/v77995xj4p741ysvqsgxjmnm0000gn/T/_gbsbuild/obj/actor_66_interact.rel
                                          [ actor_66_interact ]
/var/folders/rp/v77995xj4p741ysvqsgxjmnm0000gn/T/_gbsbuild/obj/actor_66_update.rel
                                          [ actor_66_update ]
/var/folders/rp/v77995xj4p741ysvqsgxjmnm0000gn/T/_gbsbuild/obj/actor_67_interact.rel
                                          [ actor_67_interact ]
/var/folders/rp/v77995xj4p741ysvqsgxjmnm0000gn/T/_gbsbuild/obj/actor_67_update.rel
                                          [ actor_67_update ]
/var/folders/rp/v77995xj4p741ysvqsgxjmnm0000gn/T/_gbsbuild/obj/actor_68_interact.rel
                                          [ actor_68_interact ]
/var/folders/rp/v77995xj4p741ysvqsgxjmnm0000gn/T/_gbsbuild/obj/actor_68_update.rel
                                          [ actor_68_update ]
/var/folders/rp/v77995xj4p741ysvqsgxjmnm0000gn/T/_gbsbuild/obj/actor_69_interact.rel
                                          [ actor_69_interact ]
/var/folders/rp/v77995xj4p741ysvqsgxjmnm0000gn/T/_gbsbuild/obj/actor_69_update.rel
                                          [ actor_69_update ]
/var/folders/rp/v77995xj4p741ysvqsgxjmnm0000gn/T/_gbsbuild/obj/actor_70_interact.rel
                                          [ actor_70_interact ]
/var/folders/rp/v77995xj4p741ysvqsgxjmnm0000gn/T/_gbsbuild/obj/actor_70_update.rel
                                          [ actor_70_update ]
/var/folders/rp/v77995xj4p741ysvqsgxjmnm0000gn/T/_gbsbuild/obj/actor_71_interact.rel
                                          [ actor_71_interact ]
/var/folders/rp/v77995xj4p741ysvqsgxjmnm0000gn/T/_gbsbuild/obj/actor_71_update.rel
                                          [ actor_71_update ]
/var/folders/rp/v77995xj4p741ysvqsgxjmnm0000gn/T/_gbsbuild/obj/actor_72_interact.rel
                                          [ actor_72_interact ]
/var/folders/rp/v77995xj4p741ysvqsgxjmnm0000gn/T/_gbsbuild/obj/actor_72_update.rel
                                          [ actor_72_update ]
/var/folders/rp/v77995xj4p741ysvqsgxjmnm0000gn/T/_gbsbuild/obj/actor_73_interact.rel
                                          [ actor_73_interact ]
/var/folders/rp/v77995xj4p741ysvqsgxjmnm0000gn/T/_gbsbuild/obj/actor_73_update.rel
                                          [ actor_73_update ]
/var/folders/rp/v77995xj4p741ysvqsgxjmnm0000gn/T/_gbsbuild/obj/actor_74_interact.rel
                                          [ actor_74_interact ]
/var/folders/rp/v77995xj4p741ysvqsgxjmnm0000gn/T/_gbsbuild/obj/actor_74_update.rel
                                          [ actor_74_update ]
/var/folders/rp/v77995xj4p741ysvqsgxjmnm0000gn/T/_gbsbuild/obj/actor_75_interact.rel
                                          [ actor_75_interact ]
/var/folders/rp/v77995xj4p741ysvqsgxjmnm0000gn/T/_gbsbuild/obj/actor_75_update.rel
                                          [ actor_75_update ]
/var/folders/rp/v77995xj4p741ysvqsgxjmnm0000gn/T/_gbsbuild/obj/actor_76_interact.rel
                                          [ actor_76_interact ]
/var/folders/rp/v77995xj4p741ysvqsgxjmnm0000gn/T/_gbsbuild/obj/actor_76_update.rel
                                          [ actor_76_update ]
/var/folders/rp/v77995xj4p741ysvqsgxjmnm0000gn/T/_gbsbuild/obj/actor_77_interact.rel
                                          [ actor_77_interact ]
/var/folders/rp/v77995xj4p741ysvqsgxjmnm0000gn/T/_gbsbuild/obj/actor_77_update.rel
                                          [ actor_77_update ]
/var/folders/rp/v77995xj4p741ysvqsgxjmnm0000gn/T/_gbsbuild/obj/actor_78_interact.rel
                                          [ actor_78_interact ]
/var/folders/rp/v77995xj4p741ysvqsgxjmnm0000gn/T/_gbsbuild/obj/actor_78_update.rel
                                          [ actor_78_update ]
/var/folders/rp/v77995xj4p741ysvqsgxjmnm0000gn/T/_gbsbuild/obj/actor_79_interact.rel
                                          [ actor_79_interact ]
/var/folders/rp/v77995xj4p741ysvqsgxjmnm0000gn/T/_gbsbuild/obj/actor_79_update.rel
                                          [ actor_79_update ]
/var/folders/rp/v77995xj4p741ysvqsgxjmnm0000gn/T/_gbsbuild/obj/actor_8_update.rel
                                          [ actor_8_update ]
/var/folders/rp/v77995xj4p741ysvqsgxjmnm0000gn/T/_gbsbuild/obj/actor_80_interact.rel
                                          [ actor_80_interact ]
/var/folders/rp/v77995xj4p741ysvqsgxjmnm0000gn/T/_gbsbuild/obj/actor_80_update.rel
                                          [ actor_80_update ]
/var/folders/rp/v77995xj4p741ysvqsgxjmnm0000gn/T/_gbsbuild/obj/actor_81_interact.rel
                                          [ actor_81_interact ]
/var/folders/rp/v77995xj4p741ysvqsgxjmnm0000gn/T/_gbsbuild/obj/actor_81_update.rel
                                          [ actor_81_update ]
/var/folders/rp/v77995xj4p741ysvqsgxjmnm0000gn/T/_gbsbuild/obj/actor_82_interact.rel
                                          [ actor_82_interact ]
/var/folders/rp/v77995xj4p741ysvqsgxjmnm0000gn/T/_gbsbuild/obj/actor_82_update.rel
                                          [ actor_82_update ]
/var/folders/rp/v77995xj4p741ysvqsgxjmnm0000gn/T/_gbsbuild/obj/actor_83_interact.rel
                                          [ actor_83_interact ]
/var/folders/rp/v77995xj4p741ysvqsgxjmnm0000gn/T/_gbsbuild/obj/actor_83_update.rel
                                          [ actor_83_update ]
/var/folders/rp/v77995xj4p741ysvqsgxjmnm0000gn/T/_gbsbuild/obj/actor_84_interact.rel
                                          [ actor_84_interact ]
/var/folders/rp/v77995xj4p741ysvqsgxjmnm0000gn/T/_gbsbuild/obj/actor_84_update.rel
                                          [ actor_84_update ]
/var/folders/rp/v77995xj4p741ysvqsgxjmnm0000gn/T/_gbsbuild/obj/actor_85_interact.rel
                                          [ actor_85_interact ]
/var/folders/rp/v77995xj4p741ysvqsgxjmnm0000gn/T/_gbsbuild/obj/actor_85_update.rel
                                          [ actor_85_update ]
/var/folders/rp/v77995xj4p741ysvqsgxjmnm0000gn/T/_gbsbuild/obj/actor_86_interact.rel
                                          [ actor_86_interact ]
/var/folders/rp/v77995xj4p741ysvqsgxjmnm0000gn/T/_gbsbuild/obj/actor_86_update.rel
                                          [ actor_86_update ]
/var/folders/rp/v77995xj4p741ysvqsgxjmnm0000gn/T/_gbsbuild/obj/actor_87_interact.rel
                                          [ actor_87_interact ]
/var/folders/rp/v77995xj4p741ysvqsgxjmnm0000gn/T/_gbsbuild/obj/actor_87_update.rel
                                          [ actor_87_update ]
/var/folders/rp/v77995xj4p741ysvqsgxjmnm0000gn/T/_gbsbuild/obj/actor_88_interact.rel
                                          [ actor_88_interact ]
/var/folders/rp/v77995xj4p741ysvqsgxjmnm0000gn/T/_gbsbuild/obj/actor_88_update.rel
                                          [ actor_88_update ]
/var/folders/rp/v77995xj4p741ysvqsgxjmnm0000gn/T/_gbsbuild/obj/actor_89_interact.rel
                                          [ actor_89_interact ]
/var/folders/rp/v77995xj4p741ysvqsgxjmnm0000gn/T/_gbsbuild/obj/actor_89_update.rel
                                          [ actor_89_update ]
/var/folders/rp/v77995xj4p741ysvqsgxjmnm0000gn/T/_gbsbuild/obj/actor_9_interact.rel
                                          [ actor_9_interact ]
/var/folders/rp/v77995xj4p741ysvqsgxjmnm0000gn/T/_gbsbuild/obj/actor_9_update.rel
                                          [ actor_9_update ]
/var/folders/rp/v77995xj4p741ysvqsgxjmnm0000gn/T/_gbsbuild/obj/actor_90_interact.rel
                                          [ actor_90_interact ]
/var/folders/rp/v77995xj4p741ysvqsgxjmnm0000gn/T/_gbsbuild/obj/actor_90_update.rel
                                          [ actor_90_update ]
/var/folders/rp/v77995xj4p741ysvqsgxjmnm0000gn/T/_gbsbuild/obj/actor_91_interact.rel
                                          [ actor_91_interact ]
/var/folders/rp/v77995xj4p741ysvqsgxjmnm0000gn/T/_gbsbuild/obj/actor_91_update.rel
                                          [ actor_91_update ]
/var/folders/rp/v77995xj4p741ysvqsgxjmnm0000gn/T/_gbsbuild/obj/actor_92_interact.rel
                                          [ actor_92_interact ]
/var/folders/rp/v77995xj4p741ysvqsgxjmnm0000gn/T/_gbsbuild/obj/actor_92_update.rel
                                          [ actor_92_update ]
/var/folders/rp/v77995xj4p741ysvqsgxjmnm0000gn/T/_gbsbuild/obj/actor_93_interact.rel
                                          [ actor_93_interact ]
/var/folders/rp/v77995xj4p741ysvqsgxjmnm0000gn/T/_gbsbuild/obj/actor_93_update.rel
                                          [ actor_93_update ]
/var/folders/rp/v77995xj4p741ysvqsgxjmnm0000gn/T/_gbsbuild/obj/actor_94_interact.rel
                                          [ actor_94_interact ]
/var/folders/rp/v77995xj4p741ysvqsgxjmnm0000gn/T/_gbsbuild/obj/actor_94_update.rel
                                          [ actor_94_update ]
/var/folders/rp/v77995xj4p741ysvqsgxjmnm0000gn/T/_gbsbuild/obj/actor_95_interact.rel
                                          [ actor_95_interact ]
/var/folders/rp/v77995xj4p741ysvqsgxjmnm0000gn/T/_gbsbuild/obj/actor_95_update.rel
                                          [ actor_95_update ]
/var/folders/rp/v77995xj4p741ysvqsgxjmnm0000gn/T/_gbsbuild/obj/actor_96_interact.rel
                                          [ actor_96_interact ]
/var/folders/rp/v77995xj4p741ysvqsgxjmnm0000gn/T/_gbsbuild/obj/actor_96_update.rel
                                          [ actor_96_update ]
/var/folders/rp/v77995xj4p741ysvqsgxjmnm0000gn/T/_gbsbuild/obj/actor_97_interact.rel
                                          [ actor_97_interact ]
/var/folders/rp/v77995xj4p741ysvqsgxjmnm0000gn/T/_gbsbuild/obj/actor_97_update.rel
                                          [ actor_97_update ]
/var/folders/rp/v77995xj4p741ysvqsgxjmnm0000gn/T/_gbsbuild/obj/actor_98_interact.rel
                                          [ actor_98_interact ]
/var/folders/rp/v77995xj4p741ysvqsgxjmnm0000gn/T/_gbsbuild/obj/actor_98_update.rel
                                          [ actor_98_update ]
/var/folders/rp/v77995xj4p741ysvqsgxjmnm0000gn/T/_gbsbuild/obj/actor_99_interact.rel
                                          [ actor_99_interact ]
/var/folders/rp/v77995xj4p741ysvqsgxjmnm0000gn/T/_gbsbuild/obj/actor_99_update.rel
                                          [ actor_99_update ]
/var/folders/rp/v77995xj4p741ysvqsgxjmnm0000gn/T/_gbsbuild/obj/bg_arena1_copy_tilemap.rel
                                          [ bg_arena1_copy_tilemap ]
/var/folders/rp/v77995xj4p741ysvqsgxjmnm0000gn/T/_gbsbuild/obj/bg_arena1_copy_tileset.rel
                                          [ bg_arena1_copy_tileset ]
/var/folders/rp/v77995xj4p741ysvqsgxjmnm0000gn/T/_gbsbuild/obj/bg_arena1_copy.rel
                                          [ bg_arena1_copy ]
/var/folders/rp/v77995xj4p741ysvqsgxjmnm0000gn/T/_gbsbuild/obj/bg_arena1_tilemap.rel
                                          [ bg_arena1_tilemap ]
/var/folders/rp/v77995xj4p741ysvqsgxjmnm0000gn/T/_gbsbuild/obj/bg_arena1_tileset.rel
                                          [ bg_arena1_tileset ]
/var/folders/rp/v77995xj4p741ysvqsgxjmnm0000gn/T/_gbsbuild/obj/bg_arena1.rel
                                          [ bg_arena1 ]
/var/folders/rp/v77995xj4p741ysvqsgxjmnm0000gn/T/_gbsbuild/obj/bg_arena2_copy_2_tilemap.rel
                                          [ bg_arena2_copy_2_tilemap ]
/var/folders/rp/v77995xj4p741ysvqsgxjmnm0000gn/T/_gbsbuild/obj/bg_arena2_copy_2_tileset.rel
                                          [ bg_arena2_copy_2_tileset ]
/var/folders/rp/v77995xj4p741ysvqsgxjmnm0000gn/T/_gbsbuild/obj/bg_arena2_copy_2.rel
                                          [ bg_arena2_copy_2 ]
/var/folders/rp/v77995xj4p741ysvqsgxjmnm0000gn/T/_gbsbuild/obj/bg_arena2_copy_3_tilemap.rel
                                          [ bg_arena2_copy_3_tilemap ]
/var/folders/rp/v77995xj4p741ysvqsgxjmnm0000gn/T/_gbsbuild/obj/bg_arena2_copy_3_tileset.rel
                                          [ bg_arena2_copy_3_tileset ]
/var/folders/rp/v77995xj4p741ysvqsgxjmnm0000gn/T/_gbsbuild/obj/bg_arena2_copy_3.rel
                                          [ bg_arena2_copy_3 ]
/var/folders/rp/v77995xj4p741ysvqsgxjmnm0000gn/T/_gbsbuild/obj/bg_arena2_copy_4_tilemap.rel
                                          [ bg_arena2_copy_4_tilemap ]
/var/folders/rp/v77995xj4p741ysvqsgxjmnm0000gn/T/_gbsbuild/obj/bg_arena2_copy_4_tileset.rel
                                          [ bg_arena2_copy_4_tileset ]
/var/folders/rp/v77995xj4p741ysvqsgxjmnm0000gn/T/_gbsbuild/obj/bg_arena2_copy_4.rel
                                          [ bg_arena2_copy_4 ]
/var/folders/rp/v77995xj4p741ysvqsgxjmnm0000gn/T/_gbsbuild/obj/bg_arena2_copy_5_tilemap.rel
                                          [ bg_arena2_copy_5_tilemap ]
/var/folders/rp/v77995xj4p741ysvqsgxjmnm0000gn/T/_gbsbuild/obj/bg_arena2_copy_5_tileset.rel
                                          [ bg_arena2_copy_5_tileset ]
/var/folders/rp/v77995xj4p741ysvqsgxjmnm0000gn/T/_gbsbuild/obj/bg_arena2_copy_5.rel
                                          [ bg_arena2_copy_5 ]
/var/folders/rp/v77995xj4p741ysvqsgxjmnm0000gn/T/_gbsbuild/obj/bg_arena2_copy_6_tilemap.rel
                                          [ bg_arena2_copy_6_tilemap ]
/var/folders/rp/v77995xj4p741ysvqsgxjmnm0000gn/T/_gbsbuild/obj/bg_arena2_copy_6_tileset.rel
                                          [ bg_arena2_copy_6_tileset ]
/var/folders/rp/v77995xj4p741ysvqsgxjmnm0000gn/T/_gbsbuild/obj/bg_arena2_copy_6.rel
                                          [ bg_arena2_copy_6 ]
/var/folders/rp/v77995xj4p741ysvqsgxjmnm0000gn/T/_gbsbuild/obj/bg_arena2_copy_7_tilemap.rel
                                          [ bg_arena2_copy_7_tilemap ]
/var/folders/rp/v77995xj4p741ysvqsgxjmnm0000gn/T/_gbsbuild/obj/bg_arena2_copy_7_tileset.rel
                                          [ bg_arena2_copy_7_tileset ]
/var/folders/rp/v77995xj4p741ysvqsgxjmnm0000gn/T/_gbsbuild/obj/bg_arena2_copy_7.rel
                                          [ bg_arena2_copy_7 ]
/var/folders/rp/v77995xj4p741ysvqsgxjmnm0000gn/T/_gbsbuild/obj/bg_arena2_copy_8_tilemap.rel
                                          [ bg_arena2_copy_8_tilemap ]
/var/folders/rp/v77995xj4p741ysvqsgxjmnm0000gn/T/_gbsbuild/obj/bg_arena2_copy_8_tileset.rel
                                          [ bg_arena2_copy_8_tileset ]
/var/folders/rp/v77995xj4p741ysvqsgxjmnm0000gn/T/_gbsbuild/obj/bg_arena2_copy_8.rel
                                          [ bg_arena2_copy_8 ]
/var/folders/rp/v77995xj4p741ysvqsgxjmnm0000gn/T/_gbsbuild/obj/bg_arena2_copy_tilemap.rel
                                          [ bg_arena2_copy_tilemap ]
/var/folders/rp/v77995xj4p741ysvqsgxjmnm0000gn/T/_gbsbuild/obj/bg_arena2_copy_tileset.rel
                                          [ bg_arena2_copy_tileset ]
/var/folders/rp/v77995xj4p741ysvqsgxjmnm0000gn/T/_gbsbuild/obj/bg_arena2_copy.rel
                                          [ bg_arena2_copy ]
/var/folders/rp/v77995xj4p741ysvqsgxjmnm0000gn/T/_gbsbuild/obj/bg_congratulations_tilemap.rel
                                          [ bg_congratulations_tilemap ]
/var/folders/rp/v77995xj4p741ysvqsgxjmnm0000gn/T/_gbsbuild/obj/bg_congratulations_tileset.rel
                                          [ bg_congratulations_tileset ]
/var/folders/rp/v77995xj4p741ysvqsgxjmnm0000gn/T/_gbsbuild/obj/bg_congratulations.rel
                                          [ bg_congratulations ]
/var/folders/rp/v77995xj4p741ysvqsgxjmnm0000gn/T/_gbsbuild/obj/bg_logo_tilemap.rel
                                          [ bg_logo_tilemap ]
/var/folders/rp/v77995xj4p741ysvqsgxjmnm0000gn/T/_gbsbuild/obj/bg_logo_tileset.rel
                                          [ bg_logo_tileset ]
/var/folders/rp/v77995xj4p741ysvqsgxjmnm0000gn/T/_gbsbuild/obj/bg_logo.rel
                                          [ bg_logo ]
/var/folders/rp/v77995xj4p741ysvqsgxjmnm0000gn/T/_gbsbuild/obj/bg_loser_tilemap.rel
                                          [ bg_loser_tilemap ]
/var/folders/rp/v77995xj4p741ysvqsgxjmnm0000gn/T/_gbsbuild/obj/bg_loser_tileset.rel
                                          [ bg_loser_tileset ]
/var/folders/rp/v77995xj4p741ysvqsgxjmnm0000gn/T/_gbsbuild/obj/bg_loser.rel
                                          [ bg_loser ]
/var/folders/rp/v77995xj4p741ysvqsgxjmnm0000gn/T/_gbsbuild/obj/bg_titlescreen_tilemap.rel
                                          [ bg_titlescreen_tilemap ]
/var/folders/rp/v77995xj4p741ysvqsgxjmnm0000gn/T/_gbsbuild/obj/bg_titlescreen_tileset.rel
                                          [ bg_titlescreen_tileset ]
/var/folders/rp/v77995xj4p741ysvqsgxjmnm0000gn/T/_gbsbuild/obj/bg_titlescreen.rel
                                          [ bg_titlescreen ]
/var/folders/rp/v77995xj4p741ysvqsgxjmnm0000gn/T/_gbsbuild/obj/cursor_image.rel
                                          [ cursor_image ]
/var/folders/rp/v77995xj4p741ysvqsgxjmnm0000gn/T/_gbsbuild/obj/font_gbs_mono.rel
                                          [ font_gbs_mono ]
/var/folders/rp/v77995xj4p741ysvqsgxjmnm0000gn/T/_gbsbuild/obj/frame_image.rel
                                          [ frame_image ]
/var/folders/rp/v77995xj4p741ysvqsgxjmnm0000gn/T/_gbsbuild/obj/game_signature.rel
                                          [ game_signature ]
/var/folders/rp/v77995xj4p741ysvqsgxjmnm0000gn/T/_gbsbuild/obj/song_song_template_Data.rel
                                          [ song_song_template_Data ]
/var/folders/rp/v77995xj4p741ysvqsgxjmnm0000gn/T/_gbsbuild/obj/palette_0.rel
                                          [ palette_0 ]
/var/folders/rp/v77995xj4p741ysvqsgxjmnm0000gn/T/_gbsbuild/obj/palette_1.rel
                                          [ palette_1 ]
/var/folders/rp/v77995xj4p741ysvqsgxjmnm0000gn/T/_gbsbuild/obj/scene_0_actors.rel
                                          [ scene_0_actors ]
/var/folders/rp/v77995xj4p741ysvqsgxjmnm0000gn/T/_gbsbuild/obj/scene_0_collisions.rel
                                          [ scene_0_collisions ]
/var/folders/rp/v77995xj4p741ysvqsgxjmnm0000gn/T/_gbsbuild/obj/scene_0_init.rel
                                          [ scene_0_init ]
/var/folders/rp/v77995xj4p741ysvqsgxjmnm0000gn/T/_gbsbuild/obj/scene_0_p_hit1.rel
                                          [ scene_0_p_hit1 ]
/var/folders/rp/v77995xj4p741ysvqsgxjmnm0000gn/T/_gbsbuild/obj/scene_0_projectiles.rel
                                          [ scene_0_projectiles ]
/var/folders/rp/v77995xj4p741ysvqsgxjmnm0000gn/T/_gbsbuild/obj/scene_0_sprites.rel
                                          [ scene_0_sprites ]
/var/folders/rp/v77995xj4p741ysvqsgxjmnm0000gn/T/_gbsbuild/obj/scene_0.rel
                                          [ scene_0 ]
/var/folders/rp/v77995xj4p741ysvqsgxjmnm0000gn/T/_gbsbuild/obj/scene_1_actors.rel
                                          [ scene_1_actors ]
/var/folders/rp/v77995xj4p741ysvqsgxjmnm0000gn/T/_gbsbuild/obj/scene_1_collisions.rel
                                          [ scene_1_collisions ]
/var/folders/rp/v77995xj4p741ysvqsgxjmnm0000gn/T/_gbsbuild/obj/scene_1_init.rel
                                          [ scene_1_init ]
/var/folders/rp/v77995xj4p741ysvqsgxjmnm0000gn/T/_gbsbuild/obj/scene_1_p_hit1.rel
                                          [ scene_1_p_hit1 ]
/var/folders/rp/v77995xj4p741ysvqsgxjmnm0000gn/T/_gbsbuild/obj/scene_1_projectiles.rel
                                          [ scene_1_projectiles ]
/var/folders/rp/v77995xj4p741ysvqsgxjmnm0000gn/T/_gbsbuild/obj/scene_1_sprites.rel
                                          [ scene_1_sprites ]
/var/folders/rp/v77995xj4p741ysvqsgxjmnm0000gn/T/_gbsbuild/obj/scene_1.rel
                                          [ scene_1 ]
/var/folders/rp/v77995xj4p741ysvqsgxjmnm0000gn/T/_gbsbuild/obj/scene_10_actors.rel
                                          [ scene_10_actors ]
/var/folders/rp/v77995xj4p741ysvqsgxjmnm0000gn/T/_gbsbuild/obj/scene_10_collisions.rel
                                          [ scene_10_collisions ]
/var/folders/rp/v77995xj4p741ysvqsgxjmnm0000gn/T/_gbsbuild/obj/scene_10_init.rel
                                          [ scene_10_init ]
/var/folders/rp/v77995xj4p741ysvqsgxjmnm0000gn/T/_gbsbuild/obj/scene_10_p_hit1.rel
                                          [ scene_10_p_hit1 ]
/var/folders/rp/v77995xj4p741ysvqsgxjmnm0000gn/T/_gbsbuild/obj/scene_10_projectiles.rel
                                          [ scene_10_projectiles ]
/var/folders/rp/v77995xj4p741ysvqsgxjmnm0000gn/T/_gbsbuild/obj/scene_10_sprites.rel
                                          [ scene_10_sprites ]
/var/folders/rp/v77995xj4p741ysvqsgxjmnm0000gn/T/_gbsbuild/obj/scene_10.rel
                                          [ scene_10 ]
/var/folders/rp/v77995xj4p741ysvqsgxjmnm0000gn/T/_gbsbuild/obj/scene_11_actors.rel
                                          [ scene_11_actors ]
/var/folders/rp/v77995xj4p741ysvqsgxjmnm0000gn/T/_gbsbuild/obj/scene_11_collisions.rel
                                          [ scene_11_collisions ]
/var/folders/rp/v77995xj4p741ysvqsgxjmnm0000gn/T/_gbsbuild/obj/scene_11_init.rel
                                          [ scene_11_init ]
/var/folders/rp/v77995xj4p741ysvqsgxjmnm0000gn/T/_gbsbuild/obj/scene_11_p_hit1.rel
                                          [ scene_11_p_hit1 ]
/var/folders/rp/v77995xj4p741ysvqsgxjmnm0000gn/T/_gbsbuild/obj/scene_11_projectiles.rel
                                          [ scene_11_projectiles ]
/var/folders/rp/v77995xj4p741ysvqsgxjmnm0000gn/T/_gbsbuild/obj/scene_11_sprites.rel
                                          [ scene_11_sprites ]
/var/folders/rp/v77995xj4p741ysvqsgxjmnm0000gn/T/_gbsbuild/obj/scene_11.rel
                                          [ scene_11 ]
/var/folders/rp/v77995xj4p741ysvqsgxjmnm0000gn/T/_gbsbuild/obj/scene_12_actors.rel
                                          [ scene_12_actors ]
/var/folders/rp/v77995xj4p741ysvqsgxjmnm0000gn/T/_gbsbuild/obj/scene_12_collisions.rel
                                          [ scene_12_collisions ]
/var/folders/rp/v77995xj4p741ysvqsgxjmnm0000gn/T/_gbsbuild/obj/scene_12_init.rel
                                          [ scene_12_init ]
/var/folders/rp/v77995xj4p741ysvqsgxjmnm0000gn/T/_gbsbuild/obj/scene_12_p_hit1.rel
                                          [ scene_12_p_hit1 ]
/var/folders/rp/v77995xj4p741ysvqsgxjmnm0000gn/T/_gbsbuild/obj/scene_12_projectiles.rel
                                          [ scene_12_projectiles ]
/var/folders/rp/v77995xj4p741ysvqsgxjmnm0000gn/T/_gbsbuild/obj/scene_12_sprites.rel
                                          [ scene_12_sprites ]
/var/folders/rp/v77995xj4p741ysvqsgxjmnm0000gn/T/_gbsbuild/obj/scene_12.rel
                                          [ scene_12 ]
/var/folders/rp/v77995xj4p741ysvqsgxjmnm0000gn/T/_gbsbuild/obj/scene_13_collisions.rel
                                          [ scene_13_collisions ]
/var/folders/rp/v77995xj4p741ysvqsgxjmnm0000gn/T/_gbsbuild/obj/scene_13_init.rel
                                          [ scene_13_init ]
/var/folders/rp/v77995xj4p741ysvqsgxjmnm0000gn/T/_gbsbuild/obj/scene_13.rel
                                          [ scene_13 ]
/var/folders/rp/v77995xj4p741ysvqsgxjmnm0000gn/T/_gbsbuild/obj/scene_14_collisions.rel
                                          [ scene_14_collisions ]
/var/folders/rp/v77995xj4p741ysvqsgxjmnm0000gn/T/_gbsbuild/obj/scene_14_init.rel
                                          [ scene_14_init ]
/var/folders/rp/v77995xj4p741ysvqsgxjmnm0000gn/T/_gbsbuild/obj/scene_14.rel
                                          [ scene_14 ]
/var/folders/rp/v77995xj4p741ysvqsgxjmnm0000gn/T/_gbsbuild/obj/scene_5_actors.rel
                                          [ scene_5_actors ]
/var/folders/rp/v77995xj4p741ysvqsgxjmnm0000gn/T/_gbsbuild/obj/scene_5_collisions.rel
                                          [ scene_5_collisions ]
/var/folders/rp/v77995xj4p741ysvqsgxjmnm0000gn/T/_gbsbuild/obj/scene_5_init.rel
                                          [ scene_5_init ]
/var/folders/rp/v77995xj4p741ysvqsgxjmnm0000gn/T/_gbsbuild/obj/scene_5_p_hit1.rel
                                          [ scene_5_p_hit1 ]
/var/folders/rp/v77995xj4p741ysvqsgxjmnm0000gn/T/_gbsbuild/obj/scene_5_projectiles.rel
                                          [ scene_5_projectiles ]
/var/folders/rp/v77995xj4p741ysvqsgxjmnm0000gn/T/_gbsbuild/obj/scene_5_sprites.rel
                                          [ scene_5_sprites ]
/var/folders/rp/v77995xj4p741ysvqsgxjmnm0000gn/T/_gbsbuild/obj/scene_5.rel
                                          [ scene_5 ]
/var/folders/rp/v77995xj4p741ysvqsgxjmnm0000gn/T/_gbsbuild/obj/scene_6_actors.rel
                                          [ scene_6_actors ]
/var/folders/rp/v77995xj4p741ysvqsgxjmnm0000gn/T/_gbsbuild/obj/scene_6_collisions.rel
                                          [ scene_6_collisions ]
/var/folders/rp/v77995xj4p741ysvqsgxjmnm0000gn/T/_gbsbuild/obj/scene_6_init.rel
                                          [ scene_6_init ]
/var/folders/rp/v77995xj4p741ysvqsgxjmnm0000gn/T/_gbsbuild/obj/scene_6_p_hit1.rel
                                          [ scene_6_p_hit1 ]
/var/folders/rp/v77995xj4p741ysvqsgxjmnm0000gn/T/_gbsbuild/obj/scene_6_projectiles.rel
                                          [ scene_6_projectiles ]
/var/folders/rp/v77995xj4p741ysvqsgxjmnm0000gn/T/_gbsbuild/obj/scene_6_sprites.rel
                                          [ scene_6_sprites ]
/var/folders/rp/v77995xj4p741ysvqsgxjmnm0000gn/T/_gbsbuild/obj/scene_6.rel
                                          [ scene_6 ]
/var/folders/rp/v77995xj4p741ysvqsgxjmnm0000gn/T/_gbsbuild/obj/scene_7_actors.rel
                                          [ scene_7_actors ]
/var/folders/rp/v77995xj4p741ysvqsgxjmnm0000gn/T/_gbsbuild/obj/scene_7_collisions.rel
                                          [ scene_7_collisions ]
/var/folders/rp/v77995xj4p741ysvqsgxjmnm0000gn/T/_gbsbuild/obj/scene_7_init.rel
                                          [ scene_7_init ]
/var/folders/rp/v77995xj4p741ysvqsgxjmnm0000gn/T/_gbsbuild/obj/scene_7_p_hit1.rel
                                          [ scene_7_p_hit1 ]
/var/folders/rp/v77995xj4p741ysvqsgxjmnm0000gn/T/_gbsbuild/obj/scene_7_projectiles.rel
                                          [ scene_7_projectiles ]
/var/folders/rp/v77995xj4p741ysvqsgxjmnm0000gn/T/_gbsbuild/obj/scene_7_sprites.rel
                                          [ scene_7_sprites ]
/var/folders/rp/v77995xj4p741ysvqsgxjmnm0000gn/T/_gbsbuild/obj/scene_7.rel
                                          [ scene_7 ]
/var/folders/rp/v77995xj4p741ysvqsgxjmnm0000gn/T/_gbsbuild/obj/scene_8_actors.rel
                                          [ scene_8_actors ]
/var/folders/rp/v77995xj4p741ysvqsgxjmnm0000gn/T/_gbsbuild/obj/scene_8_collisions.rel
                                          [ scene_8_collisions ]
/var/folders/rp/v77995xj4p741ysvqsgxjmnm0000gn/T/_gbsbuild/obj/scene_8_init.rel
                                          [ scene_8_init ]
/var/folders/rp/v77995xj4p741ysvqsgxjmnm0000gn/T/_gbsbuild/obj/scene_8_p_hit1.rel
                                          [ scene_8_p_hit1 ]
/var/folders/rp/v77995xj4p741ysvqsgxjmnm0000gn/T/_gbsbuild/obj/scene_8_projectiles.rel
                                          [ scene_8_projectiles ]
/var/folders/rp/v77995xj4p741ysvqsgxjmnm0000gn/T/_gbsbuild/obj/scene_8_sprites.rel
                                          [ scene_8_sprites ]
/var/folders/rp/v77995xj4p741ysvqsgxjmnm0000gn/T/_gbsbuild/obj/scene_8.rel
                                          [ scene_8 ]
/var/folders/rp/v77995xj4p741ysvqsgxjmnm0000gn/T/_gbsbuild/obj/scene_9_actors.rel
                                          [ scene_9_actors ]
/var/folders/rp/v77995xj4p741ysvqsgxjmnm0000gn/T/_gbsbuild/obj/scene_9_collisions.rel
                                          [ scene_9_collisions ]
/var/folders/rp/v77995xj4p741ysvqsgxjmnm0000gn/T/_gbsbuild/obj/scene_9_init.rel
                                          [ scene_9_init ]
/var/folders/rp/v77995xj4p741ysvqsgxjmnm0000gn/T/_gbsbuild/obj/scene_9_p_hit1.rel
                                          [ scene_9_p_hit1 ]
/var/folders/rp/v77995xj4p741ysvqsgxjmnm0000gn/T/_gbsbuild/obj/scene_9_projectiles.rel
                                          [ scene_9_projectiles ]
/var/folders/rp/v77995xj4p741ysvqsgxjmnm0000gn/T/_gbsbuild/obj/scene_9_sprites.rel
                                          [ scene_9_sprites ]
/var/folders/rp/v77995xj4p741ysvqsgxjmnm0000gn/T/_gbsbuild/obj/scene_9.rel
                                          [ scene_9 ]
/var/folders/rp/v77995xj4p741ysvqsgxjmnm0000gn/T/_gbsbuild/obj/scene_logo_collisions.rel
                                          [ scene_logo_collisions ]
/var/folders/rp/v77995xj4p741ysvqsgxjmnm0000gn/T/_gbsbuild/obj/scene_logo_init.rel
                                          [ scene_logo_init ]
/var/folders/rp/v77995xj4p741ysvqsgxjmnm0000gn/T/_gbsbuild/obj/scene_logo.rel
                                          [ scene_logo ]
/var/folders/rp/v77995xj4p741ysvqsgxjmnm0000gn/T/_gbsbuild/obj/scene_title_screen_collisions.rel
                                          [ scene_title_screen_collisions ]
/var/folders/rp/v77995xj4p741ysvqsgxjmnm0000gn/T/_gbsbuild/obj/scene_title_screen_init.rel
                                          [ scene_title_screen_init ]
/var/folders/rp/v77995xj4p741ysvqsgxjmnm0000gn/T/_gbsbuild/obj/scene_title_screen.rel
                                          [ scene_title_screen ]
/var/folders/rp/v77995xj4p741ysvqsgxjmnm0000gn/T/_gbsbuild/obj/script_engine_init.rel
                                          [  ]
/var/folders/rp/v77995xj4p741ysvqsgxjmnm0000gn/T/_gbsbuild/obj/script_input_0.rel
                                          [ script_input_0 ]
/var/folders/rp/v77995xj4p741ysvqsgxjmnm0000gn/T/_gbsbuild/obj/script_input_1.rel
                                          [ script_input_1 ]
/var/folders/rp/v77995xj4p741ysvqsgxjmnm0000gn/T/_gbsbuild/obj/script_input_2.rel
                                          [ script_input_2 ]
/var/folders/rp/v77995xj4p741ysvqsgxjmnm0000gn/T/_gbsbuild/obj/script_input_3.rel
                                          [ script_input_3 ]
/var/folders/rp/v77995xj4p741ysvqsgxjmnm0000gn/T/_gbsbuild/obj/script_input_4.rel
                                          [ script_input_4 ]
/var/folders/rp/v77995xj4p741ysvqsgxjmnm0000gn/T/_gbsbuild/obj/script_input_5.rel
                                          [ script_input_5 ]
/var/folders/rp/v77995xj4p741ysvqsgxjmnm0000gn/T/_gbsbuild/obj/script_input_6.rel
                                          [ script_input_6 ]
/var/folders/rp/v77995xj4p741ysvqsgxjmnm0000gn/T/_gbsbuild/obj/script_input_7.rel
                                          [ script_input_7 ]
/var/folders/rp/v77995xj4p741ysvqsgxjmnm0000gn/T/_gbsbuild/obj/script_input_8.rel
                                          [ script_input_8 ]
/var/folders/rp/v77995xj4p741ysvqsgxjmnm0000gn/T/_gbsbuild/obj/script_input_9.rel
                                          [ script_input_9 ]
/var/folders/rp/v77995xj4p741ysvqsgxjmnm0000gn/T/_gbsbuild/obj/sprite_bullet_tileset.rel
                                          [ sprite_bullet_tileset ]
/var/folders/rp/v77995xj4p741ysvqsgxjmnm0000gn/T/_gbsbuild/obj/sprite_bullet.rel
                                          [ sprite_bullet ]
/var/folders/rp/v77995xj4p741ysvqsgxjmnm0000gn/T/_gbsbuild/obj/sprite_hp_tileset.rel
                                          [ sprite_hp_tileset ]
/var/folders/rp/v77995xj4p741ysvqsgxjmnm0000gn/T/_gbsbuild/obj/sprite_hp.rel
                                          [ sprite_hp ]
/var/folders/rp/v77995xj4p741ysvqsgxjmnm0000gn/T/_gbsbuild/obj/sprite_npc003_tileset.rel
                                          [ sprite_npc003_tileset ]
/var/folders/rp/v77995xj4p741ysvqsgxjmnm0000gn/T/_gbsbuild/obj/sprite_npc003.rel
                                          [ sprite_npc003 ]
/var/folders/rp/v77995xj4p741ysvqsgxjmnm0000gn/T/_gbsbuild/obj/sprite_player_tileset.rel
                                          [ sprite_player_tileset ]
/var/folders/rp/v77995xj4p741ysvqsgxjmnm0000gn/T/_gbsbuild/obj/sprite_player.rel
                                          [ sprite_player ]
/var/folders/rp/v77995xj4p741ysvqsgxjmnm0000gn/T/_gbsbuild/obj/spritesheet_none.rel
                                          [ spritesheet_none ]
/var/folders/rp/v77995xj4p741ysvqsgxjmnm0000gn/T/_gbsbuild/obj/main.rel
                                          [ main ]
/var/folders/rp/v77995xj4p741ysvqsgxjmnm0000gn/T/_gbsbuild/obj/adventure.rel
                                          [ adventure ]
/var/folders/rp/v77995xj4p741ysvqsgxjmnm0000gn/T/_gbsbuild/obj/logo.rel
                                          [ logo ]
/var/folders/rp/v77995xj4p741ysvqsgxjmnm0000gn/T/_gbsbuild/obj/platform.rel
                                          [ platform ]
/var/folders/rp/v77995xj4p741ysvqsgxjmnm0000gn/T/_gbsbuild/obj/pointnclick.rel
                                          [ pointnclick ]
/var/folders/rp/v77995xj4p741ysvqsgxjmnm0000gn/T/_gbsbuild/obj/shmup.rel
                                          [ shmup ]
/var/folders/rp/v77995xj4p741ysvqsgxjmnm0000gn/T/_gbsbuild/obj/states_ptrs.rel
                                          [  ]
/var/folders/rp/v77995xj4p741ysvqsgxjmnm0000gn/T/_gbsbuild/obj/topdown.rel
                                          [ topdown ]


Libraries Linked                          [ object file ]

/var/folders/rp/v77995xj4p741ysvqsgxjmnm0000gn/T/_gbstools/gbdk/lib/gb/gb.lib
                                          [ fill_rect_wi.o ]
/var/folders/rp/v77995xj4p741ysvqsgxjmnm0000gn/T/_gbstools/gbdk/lib/sm83/sm83.lib
                                          [ rand.o ]
lib/hUGEDriver.lib                        [ hUGEDriver.o ]
/var/folders/rp/v77995xj4p741ysvqsgxjmnm0000gn/T/_gbstools/gbdk/lib/gb/gb.lib
                                          [ sfr.o ]
/var/folders/rp/v77995xj4p741ysvqsgxjmnm0000gn/T/_gbstools/gbdk/lib/gb/gb.lib
                                          [ get_data.o ]
/var/folders/rp/v77995xj4p741ysvqsgxjmnm0000gn/T/_gbstools/gbdk/lib/gb/gb.lib
                                          [ get_tile.o ]
/var/folders/rp/v77995xj4p741ysvqsgxjmnm0000gn/T/_gbstools/gbdk/lib/gb/gb.lib
                                          [ metasprites_hide_spr.o ]
/var/folders/rp/v77995xj4p741ysvqsgxjmnm0000gn/T/_gbstools/gbdk/lib/sm83/sm83.lib
                                          [ mul.o ]
/var/folders/rp/v77995xj4p741ysvqsgxjmnm0000gn/T/_gbstools/gbdk/lib/gb/gb.lib
                                          [ set_tile.o ]
/var/folders/rp/v77995xj4p741ysvqsgxjmnm0000gn/T/_gbstools/gbdk/lib/sm83/sm83.lib
                                          [ abs.o ]
/var/folders/rp/v77995xj4p741ysvqsgxjmnm0000gn/T/_gbstools/gbdk/lib/gb/gb.lib
                                          [ set_wi_t.o ]
/var/folders/rp/v77995xj4p741ysvqsgxjmnm0000gn/T/_gbstools/gbdk/lib/gb/gb.lib
                                          [ set_data.o ]
/var/folders/rp/v77995xj4p741ysvqsgxjmnm0000gn/T/_gbstools/gbdk/lib/sm83/sm83.lib
                                          [ reverse.o ]
/var/folders/rp/v77995xj4p741ysvqsgxjmnm0000gn/T/_gbstools/gbdk/lib/gb/gb.lib
                                          [ far_ptr.o ]
/var/folders/rp/v77995xj4p741ysvqsgxjmnm0000gn/T/_gbstools/gbdk/lib/gb/gb.lib
                                          [ sgb.o ]
/var/folders/rp/v77995xj4p741ysvqsgxjmnm0000gn/T/_gbstools/gbdk/lib/gb/gb.lib
                                          [ lcd.o ]
/var/folders/rp/v77995xj4p741ysvqsgxjmnm0000gn/T/_gbstools/gbdk/lib/gb/gb.lib
                                          [ fill_rect.o ]
/var/folders/rp/v77995xj4p741ysvqsgxjmnm0000gn/T/_gbstools/gbdk/lib/gb/gb.lib
                                          [ cpy_data.o ]
/var/folders/rp/v77995xj4p741ysvqsgxjmnm0000gn/T/_gbstools/gbdk/lib/gb/gb.lib
                                          [ fill_rect_bk.o ]
/var/folders/rp/v77995xj4p741ysvqsgxjmnm0000gn/T/_gbstools/gbdk/lib/gb/gb.lib
                                          [ pad.o ]
/var/folders/rp/v77995xj4p741ysvqsgxjmnm0000gn/T/_gbstools/gbdk/lib/gb/gb.lib
                                          [ metasprites.o ]
/var/folders/rp/v77995xj4p741ysvqsgxjmnm0000gn/T/_gbstools/gbdk/lib/sm83/sm83.lib
                                          [ __sdcc_call_hl.o ]
/var/folders/rp/v77995xj4p741ysvqsgxjmnm0000gn/T/_gbstools/gbdk/lib/sm83/sm83.lib
                                          [ memcpy.o ]
/var/folders/rp/v77995xj4p741ysvqsgxjmnm0000gn/T/_gbstools/gbdk/lib/sm83/sm83.lib
                                          [ _memset.o ]
/var/folders/rp/v77995xj4p741ysvqsgxjmnm0000gn/T/_gbstools/gbdk/lib/gb/gb.lib
                                          [ set_xy_t.o ]
/var/folders/rp/v77995xj4p741ysvqsgxjmnm0000gn/T/_gbstools/gbdk/lib/gb/gb.lib
                                          [ ___sdcc_bcall_ehl.o ]
/var/folders/rp/v77995xj4p741ysvqsgxjmnm0000gn/T/_gbstools/gbdk/lib/sm83/sm83.lib
                                          [ div.o ]
/var/folders/rp/v77995xj4p741ysvqsgxjmnm0000gn/T/_gbstools/gbdk/lib/gb/gb.lib
                                          [ set_bk_t.o ]

ASxxxx Linker V03.00/V05.40 + sdld,  page 76.

User Base Address Definitions

_DATA=0xC0A0
_CODE=0x0200
ASxxxx Linker V03.00/V05.40 + sdld,  page 77.

User Global Definitions

.STACK=0xDF00
_shadow_OAM=0xC000
.refresh_OAM=0xFF80
__start_save=12

